Component: ARM Compiler 5.06 update 3 (build 300) Tool: armlink [4d35c9]

==============================================================================

Section Cross References

    startup_stm32f429xx.o(STACK) refers (Special) to heapauxi.o(.text) for __use_two_region_memory
    startup_stm32f429xx.o(HEAP) refers (Special) to heapauxi.o(.text) for __use_two_region_memory
    startup_stm32f429xx.o(RESET) refers (Special) to heapauxi.o(.text) for __use_two_region_memory
    startup_stm32f429xx.o(RESET) refers to startup_stm32f429xx.o(STACK) for __initial_sp
    startup_stm32f429xx.o(RESET) refers to startup_stm32f429xx.o(.text) for Reset_Handler
    startup_stm32f429xx.o(RESET) refers to timer.o(i.TIM3_IRQHandler) for TIM3_IRQHandler
    startup_stm32f429xx.o(RESET) refers to usart.o(i.USART1_IRQHandler) for USART1_IRQHandler
    startup_stm32f429xx.o(RESET) refers to usart3.o(i.USART3_IRQHandler) for USART3_IRQHandler
    startup_stm32f429xx.o(RESET) refers to timer.o(i.TIM5_IRQHandler) for TIM5_IRQHandler
    startup_stm32f429xx.o(RESET) refers to timer.o(i.TIM7_IRQHandler) for TIM7_IRQHandler
    startup_stm32f429xx.o(.text) refers (Special) to heapauxi.o(.text) for __use_two_region_memory
    startup_stm32f429xx.o(.text) refers to __main.o(!!!main) for __main
    startup_stm32f429xx.o(.text) refers to startup_stm32f429xx.o(HEAP) for Heap_Mem
    startup_stm32f429xx.o(.text) refers to startup_stm32f429xx.o(STACK) for Stack_Mem
    main.o(i.main) refers to _printf_percent.o(.ARM.Collect$$_printf_percent$$00000000) for _printf_percent
    main.o(i.main) refers to _printf_d.o(.ARM.Collect$$_printf_percent$$00000009) for _printf_d
    main.o(i.main) refers to _printf_dec.o(.text) for _printf_int_dec
    main.o(i.main) refers to sys.o(i.Stm32_Clock_Init) for Stm32_Clock_Init
    main.o(i.main) refers to delay.o(i.delay_init) for delay_init
    main.o(i.main) refers to usart.o(i.uart_init) for uart_init
    main.o(i.main) refers to usart3.o(i.usart3_init) for usart3_init
    main.o(i.main) refers to sdram.o(i.SDRAM_Init) for SDRAM_Init
    main.o(i.main) refers to lcd.o(i.LCD_Init) for LCD_Init
    main.o(i.main) refers to lcd.o(i.LCD_Clear) for LCD_Clear
    main.o(i.main) refers to lcd.o(i.LCD_ShowString) for LCD_ShowString
    main.o(i.main) refers to __2printf.o(.text) for __2printf
    main.o(i.main) refers to sys.o(i.GPIO_Set) for GPIO_Set
    main.o(i.main) refers to wayz.o(i.wifiscan) for wifiscan
    main.o(i.main) refers to delay.o(i.delay_ms) for delay_ms
    main.o(i.main) refers to lcd.o(.data) for POINT_COLOR
    usart.o(.rev16_text) refers (Special) to use_no_semi_2.o(.text) for __use_no_semihosting
    usart.o(.revsh_text) refers (Special) to use_no_semi_2.o(.text) for __use_no_semihosting
    usart.o(.rrx_text) refers (Special) to use_no_semi_2.o(.text) for __use_no_semihosting
    usart.o(i.USART1_IRQHandler) refers (Special) to use_no_semi_2.o(.text) for __use_no_semihosting
    usart.o(i.USART1_IRQHandler) refers to usart.o(.data) for USART_RX_STA
    usart.o(i.USART1_IRQHandler) refers to usart.o(.bss) for USART_RX_BUF
    usart.o(i._sys_exit) refers (Special) to use_no_semi_2.o(.text) for __use_no_semihosting
    usart.o(i._ttywrch) refers (Special) to use_no_semi_2.o(.text) for __use_no_semihosting
    usart.o(i.fputc) refers (Special) to use_no_semi_2.o(.text) for __use_no_semihosting
    usart.o(i.uart_init) refers (Special) to use_no_semi_2.o(.text) for __use_no_semihosting
    usart.o(i.uart_init) refers to sys.o(i.GPIO_Set) for GPIO_Set
    usart.o(i.uart_init) refers to sys.o(i.GPIO_AF_Set) for GPIO_AF_Set
    usart.o(i.uart_init) refers to sys.o(i.MY_NVIC_Init) for MY_NVIC_Init
    usart.o(.bss) refers (Special) to use_no_semi_2.o(.text) for __use_no_semihosting
    usart.o(.data) refers (Special) to use_no_semi_2.o(.text) for __use_no_semihosting
    sys.o(i.MY_NVIC_Init) refers to sys.o(i.MY_NVIC_PriorityGroupConfig) for MY_NVIC_PriorityGroupConfig
    sys.o(i.Stm32_Clock_Init) refers to sys.o(i.Sys_Clock_Set) for Sys_Clock_Set
    sys.o(i.Stm32_Clock_Init) refers to sys.o(i.MY_NVIC_SetVectorTable) for MY_NVIC_SetVectorTable
    sys.o(i.Sys_Standby) refers to sys.o(i.WFI_SET) for WFI_SET
    delay.o(i.delay_init) refers to delay.o(.data) for fac_us
    delay.o(i.delay_ms) refers to delay.o(i.delay_xms) for delay_xms
    delay.o(i.delay_us) refers to delay.o(.data) for fac_us
    delay.o(i.delay_xms) refers to delay.o(.data) for fac_ms
    wayz.o(i.HAL_Snprintf) refers to vsnprintf.o(.text) for vsnprintf
    wayz.o(i.asset2Json) refers to cjson.o(i.cJSON_CreateObject) for cJSON_CreateObject
    wayz.o(i.asset2Json) refers to cjson.o(i.cJSON_CreateString) for cJSON_CreateString
    wayz.o(i.asset2Json) refers to cjson.o(i.cJSON_AddItemToObject) for cJSON_AddItemToObject
    wayz.o(i.asset2Json) refers to wayz.o(i.os2Json) for os2Json
    wayz.o(i.atk_8266_bridge) refers to _printf_percent.o(.ARM.Collect$$_printf_percent$$00000000) for _printf_percent
    wayz.o(i.atk_8266_bridge) refers to _printf_s.o(.ARM.Collect$$_printf_percent$$00000014) for _printf_s
    wayz.o(i.atk_8266_bridge) refers to _printf_str.o(.text) for _printf_str
    wayz.o(i.atk_8266_bridge) refers to delay.o(i.delay_ms) for delay_ms
    wayz.o(i.atk_8266_bridge) refers to __2printf.o(.text) for __2printf
    wayz.o(i.atk_8266_bridge) refers to lcd.o(i.LCD_ShowString) for LCD_ShowString
    wayz.o(i.atk_8266_bridge) refers to rt_memclr.o(.text) for __aeabi_memclr
    wayz.o(i.atk_8266_bridge) refers to usart3.o(i.u3_printf) for u3_printf
    wayz.o(i.atk_8266_bridge) refers to lcd.o(.data) for POINT_COLOR
    wayz.o(i.atk_8266_bridge) refers to usart3.o(.data) for USART3_RX_STA
    wayz.o(i.atk_8266_bridge) refers to usart3.o(.bss) for USART3_RX_BUF
    wayz.o(i.atk_8266_bridge) refers to usart.o(.data) for USART_RX_STA
    wayz.o(i.atk_8266_bridge) refers to usart.o(.bss) for USART_RX_BUF
    wayz.o(i.atk_8266_check_cmd) refers to strstr.o(.text) for strstr
    wayz.o(i.atk_8266_check_cmd) refers to zlog.o(i.loge) for loge
    wayz.o(i.atk_8266_check_cmd) refers to wayz.o(i.atk_8266_bridge) for atk_8266_bridge
    wayz.o(i.atk_8266_check_cmd) refers to usart3.o(.data) for USART3_RX_STA
    wayz.o(i.atk_8266_check_cmd) refers to usart3.o(.bss) for USART3_RX_BUF
    wayz.o(i.atk_8266_quit_trans) refers to delay.o(i.delay_ms) for delay_ms
    wayz.o(i.atk_8266_quit_trans) refers to wayz.o(i.atk_8266_send_cmd) for atk_8266_send_cmd
    wayz.o(i.atk_8266_send_cmd) refers to usart3.o(i.u3_printf) for u3_printf
    wayz.o(i.atk_8266_send_cmd) refers to zlog.o(i.logd) for logd
    wayz.o(i.atk_8266_send_cmd) refers to strcmpv7m.o(.text) for strcmp
    wayz.o(i.atk_8266_send_cmd) refers to delay.o(i.delay_ms) for delay_ms
    wayz.o(i.atk_8266_send_cmd) refers to strlen.o(.text) for strlen
    wayz.o(i.atk_8266_send_cmd) refers to wayz.o(i.atk_8266_check_cmd) for atk_8266_check_cmd
    wayz.o(i.atk_8266_send_cmd) refers to zlog.o(i.logi) for logi
    wayz.o(i.atk_8266_send_cmd) refers to zlog.o(i.loge) for loge
    wayz.o(i.atk_8266_send_cmd) refers to usart3.o(.data) for USART3_RX_STA
    wayz.o(i.atk_8266_send_cmd) refers to usart3.o(.bss) for USART3_RX_BUF
    wayz.o(i.atk_8266_send_data) refers to usart3.o(i.u3_printf) for u3_printf
    wayz.o(i.atk_8266_send_data) refers to delay.o(i.delay_ms) for delay_ms
    wayz.o(i.atk_8266_send_data) refers to zlog.o(i.logi) for logi
    wayz.o(i.atk_8266_send_data) refers to wayz.o(i.atk_8266_check_cmd) for atk_8266_check_cmd
    wayz.o(i.atk_8266_send_data) refers to usart3.o(.data) for USART3_RX_STA
    wayz.o(i.atk_8266_send_data) refers to usart3.o(.bss) for USART3_RX_BUF
    wayz.o(i.connectWifi) refers to wayz.o(i.atk_8266_send_cmd) for atk_8266_send_cmd
    wayz.o(i.connectWifi) refers to delay.o(i.delay_ms) for delay_ms
    wayz.o(i.connectWifi) refers to lcd.o(i.LCD_ShowString) for LCD_ShowString
    wayz.o(i.connectWifi) refers to zlog.o(i.logi) for logi
    wayz.o(i.getDEVID) refers to wayz.o(.bss) for line
    wayz.o(i.getInfoFromRaw) refers to zlog.o(i.logd) for logd
    wayz.o(i.getInfoFromRaw) refers to strcpy.o(.text) for strcpy
    wayz.o(i.getInfoFromRaw) refers to delay.o(i.delay_ms) for delay_ms
    wayz.o(i.getInfoFromRaw) refers to wayz.o(i.AtoI) for AtoI
    wayz.o(i.getInfoFromRaw) refers to usart3.o(.bss) for USART3_RX_BUF
    wayz.o(i.getInfoFromRaw) refers to wayz.o(.data) for wificount
    wayz.o(i.getMAC) refers to wayz.o(i.atk_8266_send_cmd) for atk_8266_send_cmd
    wayz.o(i.getMAC) refers to zlog.o(i.logd) for logd
    wayz.o(i.getMAC) refers to zlog.o(i.loge) for loge
    wayz.o(i.getMAC) refers to usart3.o(.bss) for USART3_RX_BUF
    wayz.o(i.getMAC) refers to wayz.o(.bss) for line
    wayz.o(i.getMODEL) refers to wayz.o(.bss) for line
    wayz.o(i.getSOFTV) refers to wayz.o(.bss) for line
    wayz.o(i.getUUID) refers to wayz.o(.data) for line
    wayz.o(i.getWifiCount) refers to wayz.o(i.strCount) for strCount
    wayz.o(i.gnss2Json) refers to cjson.o(i.cJSON_CreateObject) for cJSON_CreateObject
    wayz.o(i.gnss2Json) refers to dfltll_clz.o(x$fpl$dfltll) for __aeabi_l2d
    wayz.o(i.gnss2Json) refers to cjson.o(i.cJSON_CreateNumber) for cJSON_CreateNumber
    wayz.o(i.gnss2Json) refers to cjson.o(i.cJSON_AddItemToObject) for cJSON_AddItemToObject
    wayz.o(i.gnss2Json) refers to cjson.o(i.cJSON_CreateBool) for cJSON_CreateBool
    wayz.o(i.gnss2Json) refers to drleqf.o(x$fpl$drleqf) for __aeabi_cdrcmple
    wayz.o(i.gnss2Json) refers to dflt_clz.o(x$fpl$dflt) for __aeabi_i2d
    wayz.o(i.gnss2Json) refers to f2d.o(x$fpl$f2d) for __aeabi_f2d
    wayz.o(i.initESP8266) refers to wayz.o(i.atk_8266_quit_trans) for atk_8266_quit_trans
    wayz.o(i.initESP8266) refers to delay.o(i.delay_ms) for delay_ms
    wayz.o(i.initESP8266) refers to wayz.o(i.atk_8266_send_cmd) for atk_8266_send_cmd
    wayz.o(i.location2Json) refers to cjson.o(i.cJSON_CreateObject) for cJSON_CreateObject
    wayz.o(i.location2Json) refers to zlog.o(i.logi) for logi
    wayz.o(i.location2Json) refers to wayz.o(i.gnss2Json) for gnss2Json
    wayz.o(i.location2Json) refers to cjson.o(i.cJSON_AddItemToObject) for cJSON_AddItemToObject
    wayz.o(i.location2Json) refers to wayz.o(i.wifi2Json) for wifi2Json
    wayz.o(i.os2Json) refers to cjson.o(i.cJSON_CreateObject) for cJSON_CreateObject
    wayz.o(i.os2Json) refers to cjson.o(i.cJSON_CreateString) for cJSON_CreateString
    wayz.o(i.os2Json) refers to cjson.o(i.cJSON_AddItemToObject) for cJSON_AddItemToObject
    wayz.o(i.postTest) refers to _printf_percent.o(.ARM.Collect$$_printf_percent$$00000000) for _printf_percent
    wayz.o(i.postTest) refers to _printf_d.o(.ARM.Collect$$_printf_percent$$00000009) for _printf_d
    wayz.o(i.postTest) refers to _printf_dec.o(.text) for _printf_int_dec
    wayz.o(i.postTest) refers to wayz.o(i.atk_8266_send_cmd) for atk_8266_send_cmd
    wayz.o(i.postTest) refers to __2sprintf.o(.text) for __2sprintf
    wayz.o(i.postTest) refers to zlog.o(i.logd) for logd
    wayz.o(i.postTest) refers to delay.o(i.delay_ms) for delay_ms
    wayz.o(i.postTest) refers to zlog.o(i.logi) for logi
    wayz.o(i.postTest) refers to wayz.o(.data) for cipsend
    wayz.o(i.postTest) refers to wayz.o(.conststring) for .conststring
    wayz.o(i.postTestHttps) refers to _printf_percent.o(.ARM.Collect$$_printf_percent$$00000000) for _printf_percent
    wayz.o(i.postTestHttps) refers to _printf_d.o(.ARM.Collect$$_printf_percent$$00000009) for _printf_d
    wayz.o(i.postTestHttps) refers to _printf_dec.o(.text) for _printf_int_dec
    wayz.o(i.postTestHttps) refers to zlog.o(i.logi) for logi
    wayz.o(i.postTestHttps) refers to delay.o(i.delay_ms) for delay_ms
    wayz.o(i.postTestHttps) refers to wayz.o(i.atk_8266_send_cmd) for atk_8266_send_cmd
    wayz.o(i.postTestHttps) refers to __2sprintf.o(.text) for __2sprintf
    wayz.o(i.postTestHttps) refers to zlog.o(i.logd) for logd
    wayz.o(i.postTestHttps) refers to wayz.o(.data) for cipsend
    wayz.o(i.postTestHttps) refers to wayz.o(.conststring) for .conststring
    wayz.o(i.printOutInfo) refers to lcd.o(i.LCD_DrawLine) for LCD_DrawLine
    wayz.o(i.printOutInfo) refers to lcd.o(i.LCD_ShowString) for LCD_ShowString
    wayz.o(i.printOutInfo) refers to lcd.o(i.LCD_ShowNum) for LCD_ShowNum
    wayz.o(i.printOutInfo) refers to lcd.o(.data) for POINT_COLOR
    wayz.o(i.printOutInfo) refers to wayz.o(.data) for wificount
    wayz.o(i.strCount) refers to strlen.o(.text) for strlen
    wayz.o(i.strCount) refers to strstr.o(.text) for strstr
    wayz.o(i.track2CJson) refers to zlog.o(i.logi) for logi
    wayz.o(i.track2CJson) refers to cjson.o(i.cJSON_CreateObject) for cJSON_CreateObject
    wayz.o(i.track2CJson) refers to dfltll_clz.o(x$fpl$dfltll) for __aeabi_l2d
    wayz.o(i.track2CJson) refers to cjson.o(i.cJSON_CreateNumber) for cJSON_CreateNumber
    wayz.o(i.track2CJson) refers to cjson.o(i.cJSON_AddItemToObject) for cJSON_AddItemToObject
    wayz.o(i.track2CJson) refers to cjson.o(i.cJSON_CreateString) for cJSON_CreateString
    wayz.o(i.track2CJson) refers to wayz.o(i.asset2Json) for asset2Json
    wayz.o(i.track2CJson) refers to wayz.o(i.location2Json) for location2Json
    wayz.o(i.track2JsonString) refers to wayz.o(i.track2CJson) for track2CJson
    wayz.o(i.track2JsonString) refers to zlog.o(i.logi) for logi
    wayz.o(i.track2JsonString) refers to cjson.o(i.cJSON_Print) for cJSON_Print
    wayz.o(i.track2JsonString) refers to cjson.o(i.cJSON_PrintUnformatted) for cJSON_PrintUnformatted
    wayz.o(i.track2JsonString) refers to cjson.o(i.cJSON_Delete) for cJSON_Delete
    wayz.o(i.wifi2Json) refers to zlog.o(i.logi) for logi
    wayz.o(i.wifi2Json) refers to cjson.o(i.cJSON_CreateArray) for cJSON_CreateArray
    wayz.o(i.wifi2Json) refers to cjson.o(i.cJSON_CreateObject) for cJSON_CreateObject
    wayz.o(i.wifi2Json) refers to cjson.o(i.cJSON_AddItemToArray) for cJSON_AddItemToArray
    wayz.o(i.wifi2Json) refers to dflt_clz.o(x$fpl$dflt) for __aeabi_i2d
    wayz.o(i.wifi2Json) refers to cjson.o(i.cJSON_CreateNumber) for cJSON_CreateNumber
    wayz.o(i.wifi2Json) refers to cjson.o(i.cJSON_AddItemToObject) for cJSON_AddItemToObject
    wayz.o(i.wifi2Json) refers to zlog.o(i.loge) for loge
    wayz.o(i.wifi2Json) refers to cjson.o(i.cJSON_CreateString) for cJSON_CreateString
    wayz.o(i.wifi2Json) refers to cjson.o(i.cJSON_CreateBool) for cJSON_CreateBool
    wayz.o(i.wifiscan) refers to _printf_percent.o(.ARM.Collect$$_printf_percent$$00000000) for _printf_percent
    wayz.o(i.wifiscan) refers to _printf_s.o(.ARM.Collect$$_printf_percent$$00000014) for _printf_s
    wayz.o(i.wifiscan) refers to _printf_str.o(.text) for _printf_str
    wayz.o(i.wifiscan) refers to _printf_d.o(.ARM.Collect$$_printf_percent$$00000009) for _printf_d
    wayz.o(i.wifiscan) refers to _printf_dec.o(.text) for _printf_int_dec
    wayz.o(i.wifiscan) refers to __2printf.o(.text) for __2printf
    wayz.o(i.wifiscan) refers to lcd.o(i.LCD_ShowString) for LCD_ShowString
    wayz.o(i.wifiscan) refers to lcd.o(i.LCD_ShowNum) for LCD_ShowNum
    wayz.o(i.wifiscan) refers to delay.o(i.delay_ms) for delay_ms
    wayz.o(i.wifiscan) refers to wayz.o(i.atk_8266_send_cmd) for atk_8266_send_cmd
    wayz.o(i.wifiscan) refers to wayz.o(i.initESP8266) for initESP8266
    wayz.o(i.wifiscan) refers to wayz.o(i.getWifiCount) for getWifiCount
    wayz.o(i.wifiscan) refers to strlen.o(.text) for strlen
    wayz.o(i.wifiscan) refers to wayz.o(i.getInfoFromRaw) for getInfoFromRaw
    wayz.o(i.wifiscan) refers to wayz.o(i.printOutInfo) for printOutInfo
    wayz.o(i.wifiscan) refers to wayz.o(i.connectWifi) for connectWifi
    wayz.o(i.wifiscan) refers to wayz.o(i.getUUID) for getUUID
    wayz.o(i.wifiscan) refers to wayz.o(i.getMAC) for getMAC
    wayz.o(i.wifiscan) refers to wayz.o(i.getMODEL) for getMODEL
    wayz.o(i.wifiscan) refers to wayz.o(i.getDEVID) for getDEVID
    wayz.o(i.wifiscan) refers to wayz.o(i.getSOFTV) for getSOFTV
    wayz.o(i.wifiscan) refers to zlog.o(i.logd) for logd
    wayz.o(i.wifiscan) refers to wayz.o(i.track2JsonString) for track2JsonString
    wayz.o(i.wifiscan) refers to zlog.o(i.logi) for logi
    wayz.o(i.wifiscan) refers to wayz.o(i.HAL_Snprintf) for HAL_Snprintf
    wayz.o(i.wifiscan) refers to __2sprintf.o(.text) for __2sprintf
    wayz.o(i.wifiscan) refers to zlog.o(i.loge) for loge
    wayz.o(i.wifiscan) refers to strstr.o(.text) for strstr
    wayz.o(i.wifiscan) refers to wayz.o(i.atk_8266_bridge) for atk_8266_bridge
    wayz.o(i.wifiscan) refers to lcd.o(.data) for POINT_COLOR
    wayz.o(i.wifiscan) refers to usart3.o(.bss) for USART3_RX_BUF
    wayz.o(i.wifiscan) refers to wayz.o(.data) for wificount
    wayz.o(i.wifiscan) refers to wayz.o(.conststring) for .conststring
    wayz.o(i.wifiscan) refers to wayz.o(.bss) for senddata
    wayz.o(.data) refers to wayz.o(.bss) for wifi_x
    zlog.o(i.logd) refers to __2printf.o(.text) for __2printf
    zlog.o(i.logd) refers to vprintf.o(.text) for vprintf
    zlog.o(i.loge) refers to __2printf.o(.text) for __2printf
    zlog.o(i.loge) refers to vprintf.o(.text) for vprintf
    zlog.o(i.logi) refers to __2printf.o(.text) for __2printf
    zlog.o(i.logi) refers to vprintf.o(.text) for vprintf
    cjson.o(i.cJSON_AddItemReferenceToArray) refers to cjson.o(i.create_reference) for create_reference
    cjson.o(i.cJSON_AddItemReferenceToArray) refers to cjson.o(i.cJSON_AddItemToArray) for cJSON_AddItemToArray
    cjson.o(i.cJSON_AddItemReferenceToArray) refers to cjson.o(.data) for global_hooks
    cjson.o(i.cJSON_AddItemReferenceToObject) refers to cjson.o(i.create_reference) for create_reference
    cjson.o(i.cJSON_AddItemReferenceToObject) refers to cjson.o(i.cJSON_AddItemToObject) for cJSON_AddItemToObject
    cjson.o(i.cJSON_AddItemReferenceToObject) refers to cjson.o(.data) for global_hooks
    cjson.o(i.cJSON_AddItemToArray) refers to cjson.o(i.suffix_object) for suffix_object
    cjson.o(i.cJSON_AddItemToObject) refers to cjson.o(i.cJSON_strdup) for cJSON_strdup
    cjson.o(i.cJSON_AddItemToObject) refers to cjson.o(i.cJSON_AddItemToObjectCS) for cJSON_AddItemToObjectCS
    cjson.o(i.cJSON_AddItemToObject) refers to cjson.o(.data) for global_hooks
    cjson.o(i.cJSON_AddItemToObjectCS) refers to cjson.o(i.cJSON_AddItemToArray) for cJSON_AddItemToArray
    cjson.o(i.cJSON_AddItemToObjectCS) refers to cjson.o(.data) for global_hooks
    cjson.o(i.cJSON_Compare) refers to cjson.o(i.cJSON_IsInvalid) for cJSON_IsInvalid
    cjson.o(i.cJSON_Compare) refers to deqf.o(x$fpl$deqf) for __aeabi_cdcmpeq
    cjson.o(i.cJSON_Compare) refers to strcmpv7m.o(.text) for strcmp
    cjson.o(i.cJSON_Compare) refers to cjson.o(i.get_object_item) for get_object_item
    cjson.o(i.cJSON_CreateArray) refers to cjson.o(i.cJSON_New_Item) for cJSON_New_Item
    cjson.o(i.cJSON_CreateArray) refers to cjson.o(.data) for global_hooks
    cjson.o(i.cJSON_CreateBool) refers to cjson.o(i.cJSON_New_Item) for cJSON_New_Item
    cjson.o(i.cJSON_CreateBool) refers to cjson.o(.data) for global_hooks
    cjson.o(i.cJSON_CreateDoubleArray) refers to cjson.o(i.cJSON_CreateArray) for cJSON_CreateArray
    cjson.o(i.cJSON_CreateDoubleArray) refers to cjson.o(i.cJSON_CreateNumber) for cJSON_CreateNumber
    cjson.o(i.cJSON_CreateDoubleArray) refers to cjson.o(i.cJSON_Delete) for cJSON_Delete
    cjson.o(i.cJSON_CreateDoubleArray) refers to cjson.o(i.suffix_object) for suffix_object
    cjson.o(i.cJSON_CreateFalse) refers to cjson.o(i.cJSON_New_Item) for cJSON_New_Item
    cjson.o(i.cJSON_CreateFalse) refers to cjson.o(.data) for global_hooks
    cjson.o(i.cJSON_CreateFloatArray) refers to cjson.o(i.cJSON_CreateArray) for cJSON_CreateArray
    cjson.o(i.cJSON_CreateFloatArray) refers to f2d.o(x$fpl$f2d) for __aeabi_f2d
    cjson.o(i.cJSON_CreateFloatArray) refers to cjson.o(i.cJSON_CreateNumber) for cJSON_CreateNumber
    cjson.o(i.cJSON_CreateFloatArray) refers to cjson.o(i.cJSON_Delete) for cJSON_Delete
    cjson.o(i.cJSON_CreateFloatArray) refers to cjson.o(i.suffix_object) for suffix_object
    cjson.o(i.cJSON_CreateIntArray) refers to cjson.o(i.cJSON_CreateArray) for cJSON_CreateArray
    cjson.o(i.cJSON_CreateIntArray) refers to dflt_clz.o(x$fpl$dflt) for __aeabi_i2d
    cjson.o(i.cJSON_CreateIntArray) refers to cjson.o(i.cJSON_CreateNumber) for cJSON_CreateNumber
    cjson.o(i.cJSON_CreateIntArray) refers to cjson.o(i.cJSON_Delete) for cJSON_Delete
    cjson.o(i.cJSON_CreateIntArray) refers to cjson.o(i.suffix_object) for suffix_object
    cjson.o(i.cJSON_CreateNull) refers to cjson.o(i.cJSON_New_Item) for cJSON_New_Item
    cjson.o(i.cJSON_CreateNull) refers to cjson.o(.data) for global_hooks
    cjson.o(i.cJSON_CreateNumber) refers to cjson.o(i.cJSON_New_Item) for cJSON_New_Item
    cjson.o(i.cJSON_CreateNumber) refers to drleqf.o(x$fpl$drleqf) for __aeabi_cdrcmple
    cjson.o(i.cJSON_CreateNumber) refers to dleqf.o(x$fpl$dleqf) for __aeabi_cdcmple
    cjson.o(i.cJSON_CreateNumber) refers to dfix.o(x$fpl$dfix) for __aeabi_d2iz
    cjson.o(i.cJSON_CreateNumber) refers to cjson.o(.data) for global_hooks
    cjson.o(i.cJSON_CreateObject) refers to cjson.o(i.cJSON_New_Item) for cJSON_New_Item
    cjson.o(i.cJSON_CreateObject) refers to cjson.o(.data) for global_hooks
    cjson.o(i.cJSON_CreateRaw) refers to cjson.o(i.cJSON_New_Item) for cJSON_New_Item
    cjson.o(i.cJSON_CreateRaw) refers to cjson.o(i.cJSON_strdup) for cJSON_strdup
    cjson.o(i.cJSON_CreateRaw) refers to cjson.o(i.cJSON_Delete) for cJSON_Delete
    cjson.o(i.cJSON_CreateRaw) refers to cjson.o(.data) for global_hooks
    cjson.o(i.cJSON_CreateString) refers to cjson.o(i.cJSON_New_Item) for cJSON_New_Item
    cjson.o(i.cJSON_CreateString) refers to cjson.o(i.cJSON_strdup) for cJSON_strdup
    cjson.o(i.cJSON_CreateString) refers to cjson.o(i.cJSON_Delete) for cJSON_Delete
    cjson.o(i.cJSON_CreateString) refers to cjson.o(.data) for global_hooks
    cjson.o(i.cJSON_CreateStringArray) refers to cjson.o(i.cJSON_CreateArray) for cJSON_CreateArray
    cjson.o(i.cJSON_CreateStringArray) refers to cjson.o(i.cJSON_CreateString) for cJSON_CreateString
    cjson.o(i.cJSON_CreateStringArray) refers to cjson.o(i.cJSON_Delete) for cJSON_Delete
    cjson.o(i.cJSON_CreateStringArray) refers to cjson.o(i.suffix_object) for suffix_object
    cjson.o(i.cJSON_CreateTrue) refers to cjson.o(i.cJSON_New_Item) for cJSON_New_Item
    cjson.o(i.cJSON_CreateTrue) refers to cjson.o(.data) for global_hooks
    cjson.o(i.cJSON_Delete) refers to cjson.o(.data) for global_hooks
    cjson.o(i.cJSON_DeleteItemFromArray) refers to cjson.o(i.cJSON_DetachItemFromArray) for cJSON_DetachItemFromArray
    cjson.o(i.cJSON_DeleteItemFromArray) refers to cjson.o(i.cJSON_Delete) for cJSON_Delete
    cjson.o(i.cJSON_DeleteItemFromObject) refers to cjson.o(i.cJSON_DetachItemFromObject) for cJSON_DetachItemFromObject
    cjson.o(i.cJSON_DeleteItemFromObject) refers to cjson.o(i.cJSON_Delete) for cJSON_Delete
    cjson.o(i.cJSON_DeleteItemFromObjectCaseSensitive) refers to cjson.o(i.cJSON_DetachItemFromObjectCaseSensitive) for cJSON_DetachItemFromObjectCaseSensitive
    cjson.o(i.cJSON_DeleteItemFromObjectCaseSensitive) refers to cjson.o(i.cJSON_Delete) for cJSON_Delete
    cjson.o(i.cJSON_DetachItemFromArray) refers to cjson.o(i.get_array_item) for get_array_item
    cjson.o(i.cJSON_DetachItemFromArray) refers to cjson.o(i.cJSON_DetachItemViaPointer) for cJSON_DetachItemViaPointer
    cjson.o(i.cJSON_DetachItemFromObject) refers to cjson.o(i.cJSON_GetObjectItem) for cJSON_GetObjectItem
    cjson.o(i.cJSON_DetachItemFromObject) refers to cjson.o(i.cJSON_DetachItemViaPointer) for cJSON_DetachItemViaPointer
    cjson.o(i.cJSON_DetachItemFromObjectCaseSensitive) refers to cjson.o(i.cJSON_GetObjectItemCaseSensitive) for cJSON_GetObjectItemCaseSensitive
    cjson.o(i.cJSON_DetachItemFromObjectCaseSensitive) refers to cjson.o(i.cJSON_DetachItemViaPointer) for cJSON_DetachItemViaPointer
    cjson.o(i.cJSON_Duplicate) refers to cjson.o(i.cJSON_New_Item) for cJSON_New_Item
    cjson.o(i.cJSON_Duplicate) refers to cjson.o(i.cJSON_strdup) for cJSON_strdup
    cjson.o(i.cJSON_Duplicate) refers to cjson.o(i.cJSON_Delete) for cJSON_Delete
    cjson.o(i.cJSON_Duplicate) refers to cjson.o(.data) for global_hooks
    cjson.o(i.cJSON_GetArrayItem) refers to cjson.o(i.get_array_item) for get_array_item
    cjson.o(i.cJSON_GetErrorPtr) refers to cjson.o(.data) for global_error
    cjson.o(i.cJSON_GetObjectItem) refers to cjson.o(i.get_object_item) for get_object_item
    cjson.o(i.cJSON_GetObjectItemCaseSensitive) refers to cjson.o(i.get_object_item) for get_object_item
    cjson.o(i.cJSON_HasObjectItem) refers to cjson.o(i.cJSON_GetObjectItem) for cJSON_GetObjectItem
    cjson.o(i.cJSON_InitHooks) refers to h1_alloc.o(.text) for malloc
    cjson.o(i.cJSON_InitHooks) refers to cjson.o(.data) for global_hooks
    cjson.o(i.cJSON_InitHooks) refers to h1_free.o(.text) for free
    cjson.o(i.cJSON_InitHooks) refers to h1_realloc.o(.text) for realloc
    cjson.o(i.cJSON_InsertItemInArray) refers to cjson.o(i.get_array_item) for get_array_item
    cjson.o(i.cJSON_InsertItemInArray) refers to cjson.o(i.cJSON_AddItemToArray) for cJSON_AddItemToArray
    cjson.o(i.cJSON_New_Item) refers to cjson.o(i.mMemset) for mMemset
    cjson.o(i.cJSON_Parse) refers to cjson.o(i.cJSON_ParseWithOpts) for cJSON_ParseWithOpts
    cjson.o(i.cJSON_ParseWithOpts) refers to rt_memclr_w.o(.text) for __aeabi_memclr4
    cjson.o(i.cJSON_ParseWithOpts) refers to strlen.o(.text) for strlen
    cjson.o(i.cJSON_ParseWithOpts) refers to cjson.o(i.cJSON_New_Item) for cJSON_New_Item
    cjson.o(i.cJSON_ParseWithOpts) refers to cjson.o(i.buffer_skip_whitespace) for buffer_skip_whitespace
    cjson.o(i.cJSON_ParseWithOpts) refers to cjson.o(i.parse_value) for parse_value
    cjson.o(i.cJSON_ParseWithOpts) refers to cjson.o(i.cJSON_Delete) for cJSON_Delete
    cjson.o(i.cJSON_ParseWithOpts) refers to cjson.o(.data) for global_error
    cjson.o(i.cJSON_Print) refers to cjson.o(i.print) for print
    cjson.o(i.cJSON_Print) refers to cjson.o(.data) for global_hooks
    cjson.o(i.cJSON_PrintBuffered) refers to rt_memclr_w.o(.text) for __aeabi_memclr4
    cjson.o(i.cJSON_PrintBuffered) refers to cjson.o(i.print_value) for print_value
    cjson.o(i.cJSON_PrintBuffered) refers to cjson.o(.data) for global_hooks
    cjson.o(i.cJSON_PrintPreallocated) refers to rt_memclr_w.o(.text) for __aeabi_memclr4
    cjson.o(i.cJSON_PrintPreallocated) refers to cjson.o(i.print_value) for print_value
    cjson.o(i.cJSON_PrintPreallocated) refers to cjson.o(.data) for global_hooks
    cjson.o(i.cJSON_PrintUnformatted) refers to cjson.o(i.print) for print
    cjson.o(i.cJSON_PrintUnformatted) refers to cjson.o(.data) for global_hooks
    cjson.o(i.cJSON_ReplaceItemInArray) refers to cjson.o(i.get_array_item) for get_array_item
    cjson.o(i.cJSON_ReplaceItemInArray) refers to cjson.o(i.cJSON_ReplaceItemViaPointer) for cJSON_ReplaceItemViaPointer
    cjson.o(i.cJSON_ReplaceItemInObject) refers to cjson.o(i.replace_item_in_object) for replace_item_in_object
    cjson.o(i.cJSON_ReplaceItemInObjectCaseSensitive) refers to cjson.o(i.replace_item_in_object) for replace_item_in_object
    cjson.o(i.cJSON_ReplaceItemViaPointer) refers to cjson.o(i.cJSON_Delete) for cJSON_Delete
    cjson.o(i.cJSON_SetNumberHelper) refers to drleqf.o(x$fpl$drleqf) for __aeabi_cdrcmple
    cjson.o(i.cJSON_SetNumberHelper) refers to dleqf.o(x$fpl$dleqf) for __aeabi_cdcmple
    cjson.o(i.cJSON_SetNumberHelper) refers to dfix.o(x$fpl$dfix) for __aeabi_d2iz
    cjson.o(i.cJSON_Version) refers to _printf_percent.o(.ARM.Collect$$_printf_percent$$00000000) for _printf_percent
    cjson.o(i.cJSON_Version) refers to _printf_i.o(.ARM.Collect$$_printf_percent$$00000008) for _printf_i
    cjson.o(i.cJSON_Version) refers to _printf_dec.o(.text) for _printf_int_dec
    cjson.o(i.cJSON_Version) refers to __2sprintf.o(.text) for __2sprintf
    cjson.o(i.cJSON_Version) refers to cjson.o(.bss) for version
    cjson.o(i.cJSON_free) refers to cjson.o(.data) for global_hooks
    cjson.o(i.cJSON_malloc) refers to cjson.o(.data) for global_hooks
    cjson.o(i.cJSON_strdup) refers to strlen.o(.text) for strlen
    cjson.o(i.cJSON_strdup) refers to rt_memcpy_v6.o(.text) for __aeabi_memcpy
    cjson.o(i.case_insensitive_strcmp) refers to tolower.o(.text) for tolower
    cjson.o(i.create_reference) refers to cjson.o(i.cJSON_New_Item) for cJSON_New_Item
    cjson.o(i.create_reference) refers to rt_memcpy_w.o(.text) for __aeabi_memcpy4
    cjson.o(i.ensure) refers to rt_memcpy_v6.o(.text) for __aeabi_memcpy
    cjson.o(i.get_decimal_point) refers to localeconv.o(.text) for localeconv
    cjson.o(i.get_object_item) refers to strcmpv7m.o(.text) for strcmp
    cjson.o(i.get_object_item) refers to cjson.o(i.case_insensitive_strcmp) for case_insensitive_strcmp
    cjson.o(i.parse_array) refers to cjson.o(i.buffer_skip_whitespace) for buffer_skip_whitespace
    cjson.o(i.parse_array) refers to cjson.o(i.cJSON_New_Item) for cJSON_New_Item
    cjson.o(i.parse_array) refers to cjson.o(i.parse_value) for parse_value
    cjson.o(i.parse_array) refers to cjson.o(i.cJSON_Delete) for cJSON_Delete
    cjson.o(i.parse_number) refers to cjson.o(i.get_decimal_point) for get_decimal_point
    cjson.o(i.parse_number) refers to strtod.o(i.__hardfp_strtod) for __hardfp_strtod
    cjson.o(i.parse_number) refers to drleqf.o(x$fpl$drleqf) for __aeabi_cdrcmple
    cjson.o(i.parse_number) refers to dleqf.o(x$fpl$dleqf) for __aeabi_cdcmple
    cjson.o(i.parse_number) refers to dfix.o(x$fpl$dfix) for __aeabi_d2iz
    cjson.o(i.parse_object) refers to cjson.o(i.buffer_skip_whitespace) for buffer_skip_whitespace
    cjson.o(i.parse_object) refers to cjson.o(i.cJSON_New_Item) for cJSON_New_Item
    cjson.o(i.parse_object) refers to cjson.o(i.parse_string) for parse_string
    cjson.o(i.parse_object) refers to cjson.o(i.parse_value) for parse_value
    cjson.o(i.parse_object) refers to cjson.o(i.cJSON_Delete) for cJSON_Delete
    cjson.o(i.parse_string) refers to cjson.o(i.utf16_literal_to_utf8) for utf16_literal_to_utf8
    cjson.o(i.parse_value) refers to strncmp.o(.text) for strncmp
    cjson.o(i.parse_value) refers to cjson.o(i.parse_string) for parse_string
    cjson.o(i.parse_value) refers to cjson.o(i.parse_number) for parse_number
    cjson.o(i.parse_value) refers to cjson.o(i.parse_array) for parse_array
    cjson.o(i.parse_value) refers to cjson.o(i.parse_object) for parse_object
    cjson.o(i.print) refers to cjson.o(i.mMemset) for mMemset
    cjson.o(i.print) refers to cjson.o(i.print_value) for print_value
    cjson.o(i.print) refers to cjson.o(i.update_offset) for update_offset
    cjson.o(i.print) refers to rt_memcpy_v6.o(.text) for __aeabi_memcpy
    cjson.o(i.print_array) refers to cjson.o(i.ensure) for ensure
    cjson.o(i.print_array) refers to cjson.o(i.print_value) for print_value
    cjson.o(i.print_array) refers to cjson.o(i.update_offset) for update_offset
    cjson.o(i.print_number) refers to _printf_pad.o(.text) for _printf_pre_padding
    cjson.o(i.print_number) refers to _printf_percent.o(.ARM.Collect$$_printf_percent$$00000000) for _printf_percent
    cjson.o(i.print_number) refers to _printf_g.o(.ARM.Collect$$_printf_percent$$00000005) for _printf_g
    cjson.o(i.print_number) refers to printf1.o(x$fpl$printf1) for _printf_fp_dec
    cjson.o(i.print_number) refers to scanf1.o(x$fpl$scanf1) for _scanf_real
    cjson.o(i.print_number) refers to cjson.o(i.get_decimal_point) for get_decimal_point
    cjson.o(i.print_number) refers to dmul.o(x$fpl$dmul) for __aeabi_dmul
    cjson.o(i.print_number) refers to deqf.o(x$fpl$deqf) for __aeabi_cdcmpeq
    cjson.o(i.print_number) refers to __2sprintf.o(.text) for __2sprintf
    cjson.o(i.print_number) refers to __0sscanf.o(.text) for __0sscanf
    cjson.o(i.print_number) refers to cjson.o(i.ensure) for ensure
    cjson.o(i.print_object) refers to cjson.o(i.ensure) for ensure
    cjson.o(i.print_object) refers to cjson.o(i.print_string_ptr) for print_string_ptr
    cjson.o(i.print_object) refers to cjson.o(i.update_offset) for update_offset
    cjson.o(i.print_object) refers to cjson.o(i.print_value) for print_value
    cjson.o(i.print_string) refers to cjson.o(i.print_string_ptr) for print_string_ptr
    cjson.o(i.print_string_ptr) refers to _printf_pad.o(.text) for _printf_pre_padding
    cjson.o(i.print_string_ptr) refers to _printf_percent.o(.ARM.Collect$$_printf_percent$$00000000) for _printf_percent
    cjson.o(i.print_string_ptr) refers to _printf_x.o(.ARM.Collect$$_printf_percent$$0000000C) for _printf_x
    cjson.o(i.print_string_ptr) refers to _printf_hex_int_ll_ptr.o(.text) for _printf_longlong_hex
    cjson.o(i.print_string_ptr) refers to cjson.o(i.ensure) for ensure
    cjson.o(i.print_string_ptr) refers to strcpy.o(.text) for strcpy
    cjson.o(i.print_string_ptr) refers to rt_memcpy_v6.o(.text) for __aeabi_memcpy
    cjson.o(i.print_string_ptr) refers to __2sprintf.o(.text) for __2sprintf
    cjson.o(i.print_value) refers to cjson.o(i.ensure) for ensure
    cjson.o(i.print_value) refers to strcpy.o(.text) for strcpy
    cjson.o(i.print_value) refers to cjson.o(i.print_number) for print_number
    cjson.o(i.print_value) refers to strlen.o(.text) for strlen
    cjson.o(i.print_value) refers to rt_memcpy_v6.o(.text) for __aeabi_memcpy
    cjson.o(i.print_value) refers to cjson.o(i.print_string) for print_string
    cjson.o(i.print_value) refers to cjson.o(i.print_array) for print_array
    cjson.o(i.print_value) refers to cjson.o(i.print_object) for print_object
    cjson.o(i.replace_item_in_object) refers to cjson.o(i.cJSON_free) for cJSON_free
    cjson.o(i.replace_item_in_object) refers to cjson.o(i.cJSON_strdup) for cJSON_strdup
    cjson.o(i.replace_item_in_object) refers to cjson.o(i.get_object_item) for get_object_item
    cjson.o(i.replace_item_in_object) refers to cjson.o(i.cJSON_ReplaceItemViaPointer) for cJSON_ReplaceItemViaPointer
    cjson.o(i.replace_item_in_object) refers to cjson.o(.data) for global_hooks
    cjson.o(i.update_offset) refers to strlen.o(.text) for strlen
    cjson.o(i.utf16_literal_to_utf8) refers to cjson.o(i.parse_hex4) for parse_hex4
    cjson.o(.data) refers to h1_alloc.o(.text) for malloc
    cjson.o(.data) refers to h1_free.o(.text) for free
    cjson.o(.data) refers to h1_realloc.o(.text) for realloc
    lcd.o(i.LCD_Clear) refers to ltdc.o(i.LTDC_Clear) for LTDC_Clear
    lcd.o(i.LCD_Clear) refers to lcd.o(i.LCD_SetCursor) for LCD_SetCursor
    lcd.o(i.LCD_Clear) refers to lcd.o(i.LCD_WriteRAM_Prepare) for LCD_WriteRAM_Prepare
    lcd.o(i.LCD_Clear) refers to lcd.o(.bss) for lcddev
    lcd.o(i.LCD_Clear) refers to ltdc.o(.bss) for lcdltdc
    lcd.o(i.LCD_Color_Fill) refers to ltdc.o(i.LTDC_Color_Fill) for LTDC_Color_Fill
    lcd.o(i.LCD_Color_Fill) refers to lcd.o(i.LCD_SetCursor) for LCD_SetCursor
    lcd.o(i.LCD_Color_Fill) refers to lcd.o(i.LCD_WriteRAM_Prepare) for LCD_WriteRAM_Prepare
    lcd.o(i.LCD_Color_Fill) refers to ltdc.o(.bss) for lcdltdc
    lcd.o(i.LCD_DisplayOff) refers to ltdc.o(i.LTDC_Switch) for LTDC_Switch
    lcd.o(i.LCD_DisplayOff) refers to lcd.o(i.LCD_WR_REG) for LCD_WR_REG
    lcd.o(i.LCD_DisplayOff) refers to ltdc.o(.bss) for lcdltdc
    lcd.o(i.LCD_DisplayOff) refers to lcd.o(.bss) for lcddev
    lcd.o(i.LCD_DisplayOn) refers to ltdc.o(i.LTDC_Switch) for LTDC_Switch
    lcd.o(i.LCD_DisplayOn) refers to lcd.o(i.LCD_WR_REG) for LCD_WR_REG
    lcd.o(i.LCD_DisplayOn) refers to ltdc.o(.bss) for lcdltdc
    lcd.o(i.LCD_DisplayOn) refers to lcd.o(.bss) for lcddev
    lcd.o(i.LCD_Display_Dir) refers to ltdc.o(i.LTDC_Display_Dir) for LTDC_Display_Dir
    lcd.o(i.LCD_Display_Dir) refers to lcd.o(i.LCD_Scan_Dir) for LCD_Scan_Dir
    lcd.o(i.LCD_Display_Dir) refers to lcd.o(.bss) for lcddev
    lcd.o(i.LCD_Display_Dir) refers to ltdc.o(.bss) for lcdltdc
    lcd.o(i.LCD_DrawLine) refers to lcd.o(i.LCD_DrawPoint) for LCD_DrawPoint
    lcd.o(i.LCD_DrawPoint) refers to ltdc.o(i.LTDC_Draw_Point) for LTDC_Draw_Point
    lcd.o(i.LCD_DrawPoint) refers to lcd.o(i.LCD_SetCursor) for LCD_SetCursor
    lcd.o(i.LCD_DrawPoint) refers to lcd.o(i.LCD_WriteRAM_Prepare) for LCD_WriteRAM_Prepare
    lcd.o(i.LCD_DrawPoint) refers to ltdc.o(.bss) for lcdltdc
    lcd.o(i.LCD_DrawPoint) refers to lcd.o(.data) for POINT_COLOR
    lcd.o(i.LCD_DrawRectangle) refers to lcd.o(i.LCD_DrawLine) for LCD_DrawLine
    lcd.o(i.LCD_Draw_Circle) refers to lcd.o(i.LCD_DrawPoint) for LCD_DrawPoint
    lcd.o(i.LCD_Fast_DrawPoint) refers to ltdc.o(i.LTDC_Draw_Point) for LTDC_Draw_Point
    lcd.o(i.LCD_Fast_DrawPoint) refers to lcd.o(i.LCD_WR_REG) for LCD_WR_REG
    lcd.o(i.LCD_Fast_DrawPoint) refers to lcd.o(i.LCD_WR_DATA) for LCD_WR_DATA
    lcd.o(i.LCD_Fast_DrawPoint) refers to ltdc.o(.bss) for lcdltdc
    lcd.o(i.LCD_Fast_DrawPoint) refers to lcd.o(.bss) for lcddev
    lcd.o(i.LCD_Fill) refers to ltdc.o(i.LTDC_Fill) for LTDC_Fill
    lcd.o(i.LCD_Fill) refers to lcd.o(i.LCD_SetCursor) for LCD_SetCursor
    lcd.o(i.LCD_Fill) refers to lcd.o(i.LCD_WriteRAM_Prepare) for LCD_WriteRAM_Prepare
    lcd.o(i.LCD_Fill) refers to ltdc.o(.bss) for lcdltdc
    lcd.o(i.LCD_Init) refers to _printf_percent.o(.ARM.Collect$$_printf_percent$$00000000) for _printf_percent
    lcd.o(i.LCD_Init) refers to _printf_x.o(.ARM.Collect$$_printf_percent$$0000000C) for _printf_x
    lcd.o(i.LCD_Init) refers to _printf_hex_int_ll_ptr.o(.text) for _printf_longlong_hex
    lcd.o(i.LCD_Init) refers to ltdc.o(i.LTDC_PanelID_Read) for LTDC_PanelID_Read
    lcd.o(i.LCD_Init) refers to ltdc.o(i.LTDC_Init) for LTDC_Init
    lcd.o(i.LCD_Init) refers to sys.o(i.GPIO_Set) for GPIO_Set
    lcd.o(i.LCD_Init) refers to sys.o(i.GPIO_AF_Set) for GPIO_AF_Set
    lcd.o(i.LCD_Init) refers to delay.o(i.delay_ms) for delay_ms
    lcd.o(i.LCD_Init) refers to lcd.o(i.LCD_WR_REG) for LCD_WR_REG
    lcd.o(i.LCD_Init) refers to lcd.o(i.LCD_RD_DATA) for LCD_RD_DATA
    lcd.o(i.LCD_Init) refers to __2printf.o(.text) for __2printf
    lcd.o(i.LCD_Init) refers to lcd.o(i.LCD_WR_DATA) for LCD_WR_DATA
    lcd.o(i.LCD_Init) refers to lcd.o(.bss) for lcddev
    lcd.o(i.LCD_Init) refers to lcd.o(i.LCD_WriteReg) for LCD_WriteReg
    lcd.o(i.LCD_Init) refers to delay.o(i.delay_us) for delay_us
    lcd.o(i.LCD_Init) refers to lcd.o(i.LCD_SSD_BackLightSet) for LCD_SSD_BackLightSet
    lcd.o(i.LCD_Init) refers to lcd.o(i.LCD_Display_Dir) for LCD_Display_Dir
    lcd.o(i.LCD_Init) refers to lcd.o(i.LCD_Clear) for LCD_Clear
    lcd.o(i.LCD_ReadPoint) refers to ltdc.o(i.LTDC_Read_Point) for LTDC_Read_Point
    lcd.o(i.LCD_ReadPoint) refers to lcd.o(i.LCD_SetCursor) for LCD_SetCursor
    lcd.o(i.LCD_ReadPoint) refers to lcd.o(i.LCD_WR_REG) for LCD_WR_REG
    lcd.o(i.LCD_ReadPoint) refers to lcd.o(i.LCD_RD_DATA) for LCD_RD_DATA
    lcd.o(i.LCD_ReadPoint) refers to lcd.o(i.opt_delay) for opt_delay
    lcd.o(i.LCD_ReadPoint) refers to lcd.o(.bss) for lcddev
    lcd.o(i.LCD_ReadPoint) refers to ltdc.o(.bss) for lcdltdc
    lcd.o(i.LCD_ReadReg) refers to lcd.o(i.LCD_WR_REG) for LCD_WR_REG
    lcd.o(i.LCD_ReadReg) refers to delay.o(i.delay_us) for delay_us
    lcd.o(i.LCD_ReadReg) refers to lcd.o(i.LCD_RD_DATA) for LCD_RD_DATA
    lcd.o(i.LCD_SSD_BackLightSet) refers to lcd.o(i.LCD_WR_REG) for LCD_WR_REG
    lcd.o(i.LCD_SSD_BackLightSet) refers to lcd.o(i.LCD_WR_DATA) for LCD_WR_DATA
    lcd.o(i.LCD_SSD_BackLightSet) refers to dflt_clz.o(x$fpl$dfltu) for __aeabi_ui2d
    lcd.o(i.LCD_SSD_BackLightSet) refers to dmul.o(x$fpl$dmul) for __aeabi_dmul
    lcd.o(i.LCD_SSD_BackLightSet) refers to dfixu.o(x$fpl$dfixu) for __aeabi_d2uiz
    lcd.o(i.LCD_Scan_Dir) refers to lcd.o(i.LCD_WriteReg) for LCD_WriteReg
    lcd.o(i.LCD_Scan_Dir) refers to lcd.o(i.LCD_WR_REG) for LCD_WR_REG
    lcd.o(i.LCD_Scan_Dir) refers to lcd.o(i.LCD_WR_DATA) for LCD_WR_DATA
    lcd.o(i.LCD_Scan_Dir) refers to lcd.o(.bss) for lcddev
    lcd.o(i.LCD_SetCursor) refers to lcd.o(i.LCD_WR_REG) for LCD_WR_REG
    lcd.o(i.LCD_SetCursor) refers to lcd.o(i.LCD_WR_DATA) for LCD_WR_DATA
    lcd.o(i.LCD_SetCursor) refers to lcd.o(.bss) for lcddev
    lcd.o(i.LCD_Set_Window) refers to lcd.o(i.LCD_WR_REG) for LCD_WR_REG
    lcd.o(i.LCD_Set_Window) refers to lcd.o(i.LCD_WR_DATA) for LCD_WR_DATA
    lcd.o(i.LCD_Set_Window) refers to lcd.o(.bss) for lcddev
    lcd.o(i.LCD_ShowChar) refers to lcd.o(i.LCD_Fast_DrawPoint) for LCD_Fast_DrawPoint
    lcd.o(i.LCD_ShowChar) refers to lcd.o(.constdata) for asc2_1206
    lcd.o(i.LCD_ShowChar) refers to lcd.o(.data) for POINT_COLOR
    lcd.o(i.LCD_ShowChar) refers to lcd.o(.bss) for lcddev
    lcd.o(i.LCD_ShowNum) refers to lcd.o(i.LCD_Pow) for LCD_Pow
    lcd.o(i.LCD_ShowNum) refers to lcd.o(i.LCD_ShowChar) for LCD_ShowChar
    lcd.o(i.LCD_ShowString) refers to lcd.o(i.LCD_ShowChar) for LCD_ShowChar
    lcd.o(i.LCD_ShowxNum) refers to lcd.o(i.LCD_Pow) for LCD_Pow
    lcd.o(i.LCD_ShowxNum) refers to lcd.o(i.LCD_ShowChar) for LCD_ShowChar
    lcd.o(i.LCD_WriteRAM_Prepare) refers to lcd.o(.bss) for lcddev
    ltdc.o(i.LTDC_Clear) refers to ltdc.o(i.LTDC_Fill) for LTDC_Fill
    ltdc.o(i.LTDC_Clear) refers to ltdc.o(.bss) for lcdltdc
    ltdc.o(i.LTDC_Color_Fill) refers to ltdc.o(.bss) for lcdltdc
    ltdc.o(i.LTDC_Color_Fill) refers to ltdc.o(.data) for ltdc_framebuf
    ltdc.o(i.LTDC_Display_Dir) refers to ltdc.o(.bss) for lcdltdc
    ltdc.o(i.LTDC_Draw_Point) refers to ltdc.o(.bss) for lcdltdc
    ltdc.o(i.LTDC_Draw_Point) refers to ltdc.o(.data) for ltdc_framebuf
    ltdc.o(i.LTDC_Fill) refers to ltdc.o(.bss) for lcdltdc
    ltdc.o(i.LTDC_Fill) refers to ltdc.o(.data) for ltdc_framebuf
    ltdc.o(i.LTDC_Init) refers to ltdc.o(i.LTDC_PanelID_Read) for LTDC_PanelID_Read
    ltdc.o(i.LTDC_Init) refers to sys.o(i.GPIO_Set) for GPIO_Set
    ltdc.o(i.LTDC_Init) refers to sys.o(i.GPIO_AF_Set) for GPIO_AF_Set
    ltdc.o(i.LTDC_Init) refers to ltdc.o(i.LTDC_Clk_Set) for LTDC_Clk_Set
    ltdc.o(i.LTDC_Init) refers to ltdc.o(i.LTDC_Switch) for LTDC_Switch
    ltdc.o(i.LTDC_Init) refers to ltdc.o(i.LTDC_Layer_Parameter_Config) for LTDC_Layer_Parameter_Config
    ltdc.o(i.LTDC_Init) refers to ltdc.o(i.LTDC_Layer_Window_Config) for LTDC_Layer_Window_Config
    ltdc.o(i.LTDC_Init) refers to ltdc.o(i.LTDC_Select_Layer) for LTDC_Select_Layer
    ltdc.o(i.LTDC_Init) refers to ltdc.o(i.LTDC_Clear) for LTDC_Clear
    ltdc.o(i.LTDC_Init) refers to ltdc.o(.bss) for lcdltdc
    ltdc.o(i.LTDC_Init) refers to ltdc.o(.ARM.__AT_0xC0000000) for ltdc_lcd_framebuf
    ltdc.o(i.LTDC_Init) refers to ltdc.o(.data) for ltdc_framebuf
    ltdc.o(i.LTDC_Init) refers to lcd.o(.bss) for lcddev
    ltdc.o(i.LTDC_Layer_Window_Config) refers to ltdc.o(i.LTDC_Layer_Switch) for LTDC_Layer_Switch
    ltdc.o(i.LTDC_PanelID_Read) refers to sys.o(i.GPIO_Set) for GPIO_Set
    ltdc.o(i.LTDC_Read_Point) refers to ltdc.o(.bss) for lcdltdc
    ltdc.o(i.LTDC_Read_Point) refers to ltdc.o(.data) for ltdc_framebuf
    ltdc.o(i.LTDC_Select_Layer) refers to ltdc.o(.bss) for lcdltdc
    led.o(i.LED_Init) refers to sys.o(i.GPIO_Set) for GPIO_Set
    usart3.o(i.USART3_IRQHandler) refers to usart3.o(.data) for USART3_RX_STA
    usart3.o(i.USART3_IRQHandler) refers to usart3.o(.bss) for USART3_RX_BUF
    usart3.o(i.u3_printf) refers to vsprintf.o(.text) for vsprintf
    usart3.o(i.u3_printf) refers to strlen.o(.text) for strlen
    usart3.o(i.u3_printf) refers to usart3.o(.bss) for USART3_TX_BUF
    usart3.o(i.usart3_init) refers to sys.o(i.GPIO_Set) for GPIO_Set
    usart3.o(i.usart3_init) refers to sys.o(i.GPIO_AF_Set) for GPIO_AF_Set
    usart3.o(i.usart3_init) refers to sys.o(i.MY_NVIC_Init) for MY_NVIC_Init
    usart3.o(i.usart3_init) refers to timer.o(i.TIM7_Int_Init) for TIM7_Int_Init
    usart3.o(i.usart3_init) refers to usart3.o(.data) for USART3_RX_STA
    timer.o(i.TIM3_Int_Init) refers to sys.o(i.MY_NVIC_Init) for MY_NVIC_Init
    timer.o(i.TIM3_PWM_Init) refers to sys.o(i.GPIO_Set) for GPIO_Set
    timer.o(i.TIM3_PWM_Init) refers to sys.o(i.GPIO_AF_Set) for GPIO_AF_Set
    timer.o(i.TIM5_CH1_Cap_Init) refers to sys.o(i.GPIO_Set) for GPIO_Set
    timer.o(i.TIM5_CH1_Cap_Init) refers to sys.o(i.GPIO_AF_Set) for GPIO_AF_Set
    timer.o(i.TIM5_CH1_Cap_Init) refers to sys.o(i.MY_NVIC_Init) for MY_NVIC_Init
    timer.o(i.TIM5_IRQHandler) refers to timer.o(.data) for TIM5CH1_CAPTURE_STA
    timer.o(i.TIM7_IRQHandler) refers to usart3.o(.data) for USART3_RX_STA
    timer.o(i.TIM7_Int_Init) refers to sys.o(i.MY_NVIC_Init) for MY_NVIC_Init
    timer.o(i.TIM9_CH2_PWM_Init) refers to sys.o(i.GPIO_Set) for GPIO_Set
    timer.o(i.TIM9_CH2_PWM_Init) refers to sys.o(i.GPIO_AF_Set) for GPIO_AF_Set
    sdram.o(i.SDRAM_Init) refers to sys.o(i.GPIO_Set) for GPIO_Set
    sdram.o(i.SDRAM_Init) refers to sys.o(i.GPIO_AF_Set) for GPIO_AF_Set
    sdram.o(i.SDRAM_Init) refers to sdram.o(i.SDRAM_Send_Cmd) for SDRAM_Send_Cmd
    sdram.o(i.SDRAM_Init) refers to delay.o(i.delay_us) for delay_us
    use_no_semi_2.o(.text) refers (Special) to use_no_semi.o(.text) for __use_no_semihosting_swi
    malloc.o(.text) refers (Special) to hguard.o(.text) for __heap$guard
    malloc.o(.text) refers (Special) to init_alloc.o(.text) for _init_alloc
    malloc.o(.text) refers to rt_heap_descriptor_intlibspace.o(.text) for __rt_heap_descriptor
    malloc.o(.text) refers to heapstubs.o(.text) for __Heap_Alloc
    free.o(.text) refers (Special) to hguard.o(.text) for __heap$guard
    free.o(.text) refers to rt_heap_descriptor_intlibspace.o(.text) for __rt_heap_descriptor
    free.o(.text) refers to heapstubs.o(.text) for __Heap_Free
    realloc.o(.text) refers (Special) to hguard.o(.text) for __heap$guard
    realloc.o(.text) refers to rt_heap_descriptor_intlibspace.o(.text) for __rt_heap_descriptor
    realloc.o(.text) refers to heapstubs.o(.text) for __Heap_Realloc
    realloc.o(.text) refers to h1_free.o(.text) for free
    realloc.o(.text) refers to h1_alloc.o(.text) for malloc
    h1_alloc.o(.text) refers (Special) to h1_init.o(.text) for __Heap_Initialize
    h1_alloc.o(.text) refers to rt_heap_descriptor_intlibspace.o(.text) for __rt_heap_descriptor
    h1_alloc.o(.text) refers to init_alloc.o(.text) for __Heap_Full
    h1_free.o(.text) refers to rt_heap_descriptor_intlibspace.o(.text) for __rt_heap_descriptor
    h1_realloc.o(.text) refers to rt_heap_descriptor_intlibspace.o(.text) for __rt_heap_descriptor
    h1_realloc.o(.text) refers to h1_free.o(.text) for free
    h1_realloc.o(.text) refers to h1_alloc.o(.text) for malloc
    h1_realloc.o(.text) refers to rt_memcpy_w.o(.text) for __aeabi_memcpy4
    h1_alloc_mt.o(.text) refers (Special) to h1_init.o(.text) for __Heap_Initialize
    h1_alloc_mt.o(.text) refers to init_alloc.o(.text) for __Heap_Full
    h1_alloc_mt.o(.text) refers to rt_heap_descriptor_intlibspace.o(.text) for __rt_heap_descriptor
    h1_free_mt.o(.text) refers to rt_heap_descriptor_intlibspace.o(.text) for __rt_heap_descriptor
    h1_realloc_mt.o(.text) refers to rt_heap_descriptor_intlibspace.o(.text) for __rt_heap_descriptor
    h1_realloc_mt.o(.text) refers to h1_free_mt.o(.text) for _free_internal
    h1_realloc_mt.o(.text) refers to h1_free.o(.text) for free
    h1_realloc_mt.o(.text) refers to h1_alloc.o(.text) for malloc
    h1_realloc_mt.o(.text) refers to h1_alloc_mt.o(.text) for _malloc_internal
    h1_realloc_mt.o(.text) refers to rt_memcpy_w.o(.text) for __aeabi_memcpy4
    heap2.o(i._FDIterate) refers to heap2.o(.conststring) for .conststring
    heap2.o(i.___Heap_ProvideMemory$realtime) refers to fdtree.o(i._FDTree_Delete) for _FDTree_Delete
    heap2.o(i.___Heap_ProvideMemory$realtime) refers to fdtree.o(i._FDTree_Insert) for _FDTree_Insert
    heap2.o(i.___Heap_Stats$realtime) refers to heap2.o(i._Heap2_StatsIterate) for _Heap2_StatsIterate
    heap2.o(i.___Heap_Valid$realtime) refers to heap2.o(i._FDIterate) for _FDIterate
    heap2.o(i.___Heap_Valid$realtime) refers to heap2.o(.conststring) for .conststring
    heap2.o(i._free$realtime) refers to rt_heap_descriptor_intlibspace.o(.text) for __rt_heap_descriptor
    heap2.o(i._free$realtime) refers to fdtree.o(i._FDTree_Delete) for _FDTree_Delete
    heap2.o(i._free$realtime) refers to fdtree.o(i._FDTree_Insert) for _FDTree_Insert
    heap2.o(i._malloc$realtime) refers to rt_heap_descriptor_intlibspace.o(.text) for __rt_heap_descriptor
    heap2.o(i._malloc$realtime) refers to fdtree.o(i._FDTree_FindFirst) for _FDTree_FindFirst
    heap2.o(i._malloc$realtime) refers to init_alloc.o(.text) for __Heap_Full
    heap2.o(i._malloc$realtime) refers to fdtree.o(i._FDTree_RemoveNode) for _FDTree_RemoveNode
    heap2.o(i._malloc$realtime) refers to fdtree.o(i._FDTree_Insert) for _FDTree_Insert
    heap2.o(i._posix_memalign$realtime) refers to rt_heap_descriptor_intlibspace.o(.text) for __rt_heap_descriptor
    heap2.o(i._posix_memalign$realtime) refers to fdtree.o(i._FDTree_FindFirst) for _FDTree_FindFirst
    heap2.o(i._posix_memalign$realtime) refers to init_alloc.o(.text) for __Heap_Full
    heap2.o(i._posix_memalign$realtime) refers to fdtree.o(i._FDTree_RemoveNode) for _FDTree_RemoveNode
    heap2.o(i._posix_memalign$realtime) refers to fdtree.o(i._FDTree_Insert) for _FDTree_Insert
    heap2.o(i._realloc$realtime) refers to rt_heap_descriptor_intlibspace.o(.text) for __rt_heap_descriptor
    heap2.o(i._realloc$realtime) refers to fdtree.o(i._FDTree_Insert) for _FDTree_Insert
    heap2.o(i._realloc$realtime) refers to h1_free.o(.text) for free
    heap2.o(i._realloc$realtime) refers to h1_alloc.o(.text) for malloc
    heap2.o(i._realloc$realtime) refers to fdtree.o(i._FDTree_Delete) for _FDTree_Delete
    heap2.o(i._realloc$realtime) refers to rt_memcpy_w.o(.text) for __aeabi_memcpy4
    heap2mt.o(i._FDIterate) refers to heap2mt.o(.conststring) for .conststring
    heap2mt.o(i.___Heap_Initialize$realtime$concurrent) refers to mutex_dummy.o(.text) for _mutex_initialize
    heap2mt.o(i.___Heap_ProvideMemory$realtime$concurrent) refers to fdtree.o(i._FDTree_Delete) for _FDTree_Delete
    heap2mt.o(i.___Heap_ProvideMemory$realtime$concurrent) refers to fdtree.o(i._FDTree_Insert) for _FDTree_Insert
    heap2mt.o(i.___Heap_Stats$realtime$concurrent) refers to heap2mt.o(i._Heap2_StatsIterate) for _Heap2_StatsIterate
    heap2mt.o(i.___Heap_Valid$realtime$concurrent) refers to heap2mt.o(i._FDIterate) for _FDIterate
    heap2mt.o(i.___Heap_Valid$realtime$concurrent) refers to heap2mt.o(.conststring) for .conststring
    heap2mt.o(i._free$realtime$concurrent) refers to rt_heap_descriptor_intlibspace.o(.text) for __rt_heap_descriptor
    heap2mt.o(i._free$realtime$concurrent) refers to fdtree.o(i._FDTree_Delete) for _FDTree_Delete
    heap2mt.o(i._free$realtime$concurrent) refers to fdtree.o(i._FDTree_Insert) for _FDTree_Insert
    heap2mt.o(i._malloc$realtime$concurrent) refers to rt_heap_descriptor_intlibspace.o(.text) for __rt_heap_descriptor
    heap2mt.o(i._malloc$realtime$concurrent) refers to fdtree.o(i._FDTree_FindFirst) for _FDTree_FindFirst
    heap2mt.o(i._malloc$realtime$concurrent) refers to init_alloc.o(.text) for __Heap_Full
    heap2mt.o(i._malloc$realtime$concurrent) refers to fdtree.o(i._FDTree_RemoveNode) for _FDTree_RemoveNode
    heap2mt.o(i._malloc$realtime$concurrent) refers to fdtree.o(i._FDTree_Insert) for _FDTree_Insert
    heap2mt.o(i._posix_memalign$realtime$concurrent) refers to rt_heap_descriptor_intlibspace.o(.text) for __rt_heap_descriptor
    heap2mt.o(i._posix_memalign$realtime$concurrent) refers to fdtree.o(i._FDTree_FindFirst) for _FDTree_FindFirst
    heap2mt.o(i._posix_memalign$realtime$concurrent) refers to init_alloc.o(.text) for __Heap_Full
    heap2mt.o(i._posix_memalign$realtime$concurrent) refers to fdtree.o(i._FDTree_RemoveNode) for _FDTree_RemoveNode
    heap2mt.o(i._posix_memalign$realtime$concurrent) refers to fdtree.o(i._FDTree_Insert) for _FDTree_Insert
    heap2mt.o(i._realloc$realtime$concurrent) refers to rt_heap_descriptor_intlibspace.o(.text) for __rt_heap_descriptor
    heap2mt.o(i._realloc$realtime$concurrent) refers to fdtree.o(i._FDTree_Insert) for _FDTree_Insert
    heap2mt.o(i._realloc$realtime$concurrent) refers to h1_free.o(.text) for free
    heap2mt.o(i._realloc$realtime$concurrent) refers to h1_alloc.o(.text) for malloc
    heap2mt.o(i._realloc$realtime$concurrent) refers to fdtree.o(i._FDTree_Delete) for _FDTree_Delete
    heap2mt.o(i._realloc$realtime$concurrent) refers to rt_memcpy_w.o(.text) for __aeabi_memcpy4
    tolower.o(.text) refers to rt_ctype_table.o(.text) for __rt_ctype_table
    vprintf.o(.text) refers (Special) to _printf_a.o(.ARM.Collect$$_printf_percent$$00000006) for _printf_a
    vprintf.o(.text) refers (Special) to _printf_c.o(.ARM.Collect$$_printf_percent$$00000013) for _printf_c
    vprintf.o(.text) refers (Special) to _printf_charcount.o(.text) for _printf_charcount
    vprintf.o(.text) refers (Special) to _printf_d.o(.ARM.Collect$$_printf_percent$$00000009) for _printf_d
    vprintf.o(.text) refers (Special) to _printf_e.o(.ARM.Collect$$_printf_percent$$00000004) for _printf_e
    vprintf.o(.text) refers (Special) to _printf_f.o(.ARM.Collect$$_printf_percent$$00000003) for _printf_f
    vprintf.o(.text) refers (Special) to printf1.o(x$fpl$printf1) for _printf_fp_dec
    vprintf.o(.text) refers (Special) to printf2.o(x$fpl$printf2) for _printf_fp_hex
    vprintf.o(.text) refers (Special) to _printf_g.o(.ARM.Collect$$_printf_percent$$00000005) for _printf_g
    vprintf.o(.text) refers (Special) to _printf_i.o(.ARM.Collect$$_printf_percent$$00000008) for _printf_i
    vprintf.o(.text) refers (Special) to _printf_dec.o(.text) for _printf_int_dec
    vprintf.o(.text) refers (Special) to _printf_l.o(.ARM.Collect$$_printf_percent$$00000012) for _printf_l
    vprintf.o(.text) refers (Special) to _printf_lc.o(.ARM.Collect$$_printf_percent$$00000015) for _printf_lc
    vprintf.o(.text) refers (Special) to _printf_ll.o(.ARM.Collect$$_printf_percent$$00000007) for _printf_ll
    vprintf.o(.text) refers (Special) to _printf_lld.o(.ARM.Collect$$_printf_percent$$0000000E) for _printf_lld
    vprintf.o(.text) refers (Special) to _printf_lli.o(.ARM.Collect$$_printf_percent$$0000000D) for _printf_lli
    vprintf.o(.text) refers (Special) to _printf_llo.o(.ARM.Collect$$_printf_percent$$00000010) for _printf_llo
    vprintf.o(.text) refers (Special) to _printf_llu.o(.ARM.Collect$$_printf_percent$$0000000F) for _printf_llu
    vprintf.o(.text) refers (Special) to _printf_llx.o(.ARM.Collect$$_printf_percent$$00000011) for _printf_llx
    vprintf.o(.text) refers (Special) to _printf_longlong_dec.o(.text) for _printf_longlong_dec
    vprintf.o(.text) refers (Special) to _printf_hex_int_ll_ptr.o(.text) for _printf_longlong_hex
    vprintf.o(.text) refers (Special) to _printf_oct_int_ll.o(.text) for _printf_longlong_oct
    vprintf.o(.text) refers (Special) to _printf_ls.o(.ARM.Collect$$_printf_percent$$00000016) for _printf_ls
    vprintf.o(.text) refers (Special) to _printf_n.o(.ARM.Collect$$_printf_percent$$00000001) for _printf_n
    vprintf.o(.text) refers (Special) to _printf_o.o(.ARM.Collect$$_printf_percent$$0000000B) for _printf_o
    vprintf.o(.text) refers (Special) to _printf_p.o(.ARM.Collect$$_printf_percent$$00000002) for _printf_p
    vprintf.o(.text) refers (Special) to _printf_percent.o(.ARM.Collect$$_printf_percent$$00000000) for _printf_percent
    vprintf.o(.text) refers (Special) to _printf_pad.o(.text) for _printf_post_padding
    vprintf.o(.text) refers (Special) to _printf_s.o(.ARM.Collect$$_printf_percent$$00000014) for _printf_s
    vprintf.o(.text) refers (Special) to _printf_str.o(.text) for _printf_str
    vprintf.o(.text) refers (Special) to _printf_truncate.o(.text) for _printf_truncate_signed
    vprintf.o(.text) refers (Special) to _printf_u.o(.ARM.Collect$$_printf_percent$$0000000A) for _printf_u
    vprintf.o(.text) refers (Special) to _printf_wctomb.o(.text) for _printf_wctomb
    vprintf.o(.text) refers (Special) to _printf_x.o(.ARM.Collect$$_printf_percent$$0000000C) for _printf_x
    vprintf.o(.text) refers to _printf_char_file.o(.text) for _printf_char_file
    vprintf.o(.text) refers to usart.o(.data) for __stdout
    vsprintf.o(.text) refers (Special) to _printf_a.o(.ARM.Collect$$_printf_percent$$00000006) for _printf_a
    vsprintf.o(.text) refers (Special) to _printf_c.o(.ARM.Collect$$_printf_percent$$00000013) for _printf_c
    vsprintf.o(.text) refers (Special) to _printf_charcount.o(.text) for _printf_charcount
    vsprintf.o(.text) refers (Special) to _printf_d.o(.ARM.Collect$$_printf_percent$$00000009) for _printf_d
    vsprintf.o(.text) refers (Special) to _printf_e.o(.ARM.Collect$$_printf_percent$$00000004) for _printf_e
    vsprintf.o(.text) refers (Special) to _printf_f.o(.ARM.Collect$$_printf_percent$$00000003) for _printf_f
    vsprintf.o(.text) refers (Special) to printf1.o(x$fpl$printf1) for _printf_fp_dec
    vsprintf.o(.text) refers (Special) to printf2.o(x$fpl$printf2) for _printf_fp_hex
    vsprintf.o(.text) refers (Special) to _printf_g.o(.ARM.Collect$$_printf_percent$$00000005) for _printf_g
    vsprintf.o(.text) refers (Special) to _printf_i.o(.ARM.Collect$$_printf_percent$$00000008) for _printf_i
    vsprintf.o(.text) refers (Special) to _printf_dec.o(.text) for _printf_int_dec
    vsprintf.o(.text) refers (Special) to _printf_l.o(.ARM.Collect$$_printf_percent$$00000012) for _printf_l
    vsprintf.o(.text) refers (Special) to _printf_lc.o(.ARM.Collect$$_printf_percent$$00000015) for _printf_lc
    vsprintf.o(.text) refers (Special) to _printf_ll.o(.ARM.Collect$$_printf_percent$$00000007) for _printf_ll
    vsprintf.o(.text) refers (Special) to _printf_lld.o(.ARM.Collect$$_printf_percent$$0000000E) for _printf_lld
    vsprintf.o(.text) refers (Special) to _printf_lli.o(.ARM.Collect$$_printf_percent$$0000000D) for _printf_lli
    vsprintf.o(.text) refers (Special) to _printf_llo.o(.ARM.Collect$$_printf_percent$$00000010) for _printf_llo
    vsprintf.o(.text) refers (Special) to _printf_llu.o(.ARM.Collect$$_printf_percent$$0000000F) for _printf_llu
    vsprintf.o(.text) refers (Special) to _printf_llx.o(.ARM.Collect$$_printf_percent$$00000011) for _printf_llx
    vsprintf.o(.text) refers (Special) to _printf_longlong_dec.o(.text) for _printf_longlong_dec
    vsprintf.o(.text) refers (Special) to _printf_hex_int_ll_ptr.o(.text) for _printf_longlong_hex
    vsprintf.o(.text) refers (Special) to _printf_oct_int_ll.o(.text) for _printf_longlong_oct
    vsprintf.o(.text) refers (Special) to _printf_ls.o(.ARM.Collect$$_printf_percent$$00000016) for _printf_ls
    vsprintf.o(.text) refers (Special) to _printf_n.o(.ARM.Collect$$_printf_percent$$00000001) for _printf_n
    vsprintf.o(.text) refers (Special) to _printf_o.o(.ARM.Collect$$_printf_percent$$0000000B) for _printf_o
    vsprintf.o(.text) refers (Special) to _printf_p.o(.ARM.Collect$$_printf_percent$$00000002) for _printf_p
    vsprintf.o(.text) refers (Special) to _printf_percent.o(.ARM.Collect$$_printf_percent$$00000000) for _printf_percent
    vsprintf.o(.text) refers (Special) to _printf_pad.o(.text) for _printf_post_padding
    vsprintf.o(.text) refers (Special) to _printf_s.o(.ARM.Collect$$_printf_percent$$00000014) for _printf_s
    vsprintf.o(.text) refers (Special) to _printf_str.o(.text) for _printf_str
    vsprintf.o(.text) refers (Special) to _printf_truncate.o(.text) for _printf_truncate_signed
    vsprintf.o(.text) refers (Special) to _printf_u.o(.ARM.Collect$$_printf_percent$$0000000A) for _printf_u
    vsprintf.o(.text) refers (Special) to _printf_wctomb.o(.text) for _printf_wctomb
    vsprintf.o(.text) refers (Special) to _printf_x.o(.ARM.Collect$$_printf_percent$$0000000C) for _printf_x
    vsprintf.o(.text) refers to _printf_char_common.o(.text) for _printf_char_common
    vsprintf.o(.text) refers to _sputc.o(.text) for _sputc
    vsnprintf.o(.text) refers (Special) to _printf_a.o(.ARM.Collect$$_printf_percent$$00000006) for _printf_a
    vsnprintf.o(.text) refers (Special) to _printf_c.o(.ARM.Collect$$_printf_percent$$00000013) for _printf_c
    vsnprintf.o(.text) refers (Special) to _printf_charcount.o(.text) for _printf_charcount
    vsnprintf.o(.text) refers (Special) to _printf_d.o(.ARM.Collect$$_printf_percent$$00000009) for _printf_d
    vsnprintf.o(.text) refers (Special) to _printf_e.o(.ARM.Collect$$_printf_percent$$00000004) for _printf_e
    vsnprintf.o(.text) refers (Special) to _printf_f.o(.ARM.Collect$$_printf_percent$$00000003) for _printf_f
    vsnprintf.o(.text) refers (Special) to printf1.o(x$fpl$printf1) for _printf_fp_dec
    vsnprintf.o(.text) refers (Special) to printf2.o(x$fpl$printf2) for _printf_fp_hex
    vsnprintf.o(.text) refers (Special) to _printf_g.o(.ARM.Collect$$_printf_percent$$00000005) for _printf_g
    vsnprintf.o(.text) refers (Special) to _printf_i.o(.ARM.Collect$$_printf_percent$$00000008) for _printf_i
    vsnprintf.o(.text) refers (Special) to _printf_dec.o(.text) for _printf_int_dec
    vsnprintf.o(.text) refers (Special) to _printf_l.o(.ARM.Collect$$_printf_percent$$00000012) for _printf_l
    vsnprintf.o(.text) refers (Special) to _printf_lc.o(.ARM.Collect$$_printf_percent$$00000015) for _printf_lc
    vsnprintf.o(.text) refers (Special) to _printf_ll.o(.ARM.Collect$$_printf_percent$$00000007) for _printf_ll
    vsnprintf.o(.text) refers (Special) to _printf_lld.o(.ARM.Collect$$_printf_percent$$0000000E) for _printf_lld
    vsnprintf.o(.text) refers (Special) to _printf_lli.o(.ARM.Collect$$_printf_percent$$0000000D) for _printf_lli
    vsnprintf.o(.text) refers (Special) to _printf_llo.o(.ARM.Collect$$_printf_percent$$00000010) for _printf_llo
    vsnprintf.o(.text) refers (Special) to _printf_llu.o(.ARM.Collect$$_printf_percent$$0000000F) for _printf_llu
    vsnprintf.o(.text) refers (Special) to _printf_llx.o(.ARM.Collect$$_printf_percent$$00000011) for _printf_llx
    vsnprintf.o(.text) refers (Special) to _printf_longlong_dec.o(.text) for _printf_longlong_dec
    vsnprintf.o(.text) refers (Special) to _printf_hex_int_ll_ptr.o(.text) for _printf_longlong_hex
    vsnprintf.o(.text) refers (Special) to _printf_oct_int_ll.o(.text) for _printf_longlong_oct
    vsnprintf.o(.text) refers (Special) to _printf_ls.o(.ARM.Collect$$_printf_percent$$00000016) for _printf_ls
    vsnprintf.o(.text) refers (Special) to _printf_n.o(.ARM.Collect$$_printf_percent$$00000001) for _printf_n
    vsnprintf.o(.text) refers (Special) to _printf_o.o(.ARM.Collect$$_printf_percent$$0000000B) for _printf_o
    vsnprintf.o(.text) refers (Special) to _printf_p.o(.ARM.Collect$$_printf_percent$$00000002) for _printf_p
    vsnprintf.o(.text) refers (Special) to _printf_percent.o(.ARM.Collect$$_printf_percent$$00000000) for _printf_percent
    vsnprintf.o(.text) refers (Special) to _printf_pad.o(.text) for _printf_post_padding
    vsnprintf.o(.text) refers (Special) to _printf_s.o(.ARM.Collect$$_printf_percent$$00000014) for _printf_s
    vsnprintf.o(.text) refers (Special) to _printf_str.o(.text) for _printf_str
    vsnprintf.o(.text) refers (Special) to _printf_truncate.o(.text) for _printf_truncate_signed
    vsnprintf.o(.text) refers (Special) to _printf_u.o(.ARM.Collect$$_printf_percent$$0000000A) for _printf_u
    vsnprintf.o(.text) refers (Special) to _printf_wctomb.o(.text) for _printf_wctomb
    vsnprintf.o(.text) refers (Special) to _printf_x.o(.ARM.Collect$$_printf_percent$$0000000C) for _printf_x
    vsnprintf.o(.text) refers to _printf_char_common.o(.text) for _printf_char_common
    vsnprintf.o(.text) refers to _sputc.o(.text) for _sputc
    vsnprintf.o(.text) refers to _snputc.o(.text) for _snputc
    __2printf.o(.text) refers to _printf_char_file.o(.text) for _printf_char_file
    __2printf.o(.text) refers to usart.o(.data) for __stdout
    __2sprintf.o(.text) refers to _printf_char_common.o(.text) for _printf_char_common
    __2sprintf.o(.text) refers to _sputc.o(.text) for _sputc
    noretval__2printf.o(.text) refers to _printf_char_file.o(.text) for _printf_char_file
    noretval__2printf.o(.text) refers to usart.o(.data) for __stdout
    noretval__2sprintf.o(.text) refers to _printf_char_common.o(.text) for _printf_char_common
    noretval__2sprintf.o(.text) refers to _sputc.o(.text) for _sputc
    __printf.o(.text) refers to _printf_percent.o(.ARM.Collect$$_printf_percent$$00000000) for _printf_percent
    _printf_str.o(.text) refers (Special) to _printf_char.o(.text) for _printf_cs_common
    _printf_str.o(.text) refers (Weak) to _printf_pad.o(.text) for _printf_pre_padding
    _printf_str.o(.text) refers (Weak) to _printf_pad.o(.text) for _printf_post_padding
    _printf_dec.o(.text) refers (Weak) to _printf_truncate.o(.text) for _printf_truncate_signed
    _printf_dec.o(.text) refers (Weak) to _printf_truncate.o(.text) for _printf_truncate_unsigned
    _printf_dec.o(.text) refers to _printf_intcommon.o(.text) for _printf_int_common
    _printf_hex_ll.o(.text) refers to _printf_intcommon.o(.text) for _printf_int_common
    _printf_hex_ll.o(.text) refers to _printf_hex_ll.o(.constdata) for .constdata
    _printf_hex_int.o(.text) refers (Weak) to _printf_truncate.o(.text) for _printf_truncate_unsigned
    _printf_hex_int.o(.text) refers to _printf_intcommon.o(.text) for _printf_int_common
    _printf_hex_int.o(.text) refers to _printf_hex_int.o(.constdata) for .constdata
    _printf_hex_int_ll.o(.text) refers to _printf_intcommon.o(.text) for _printf_int_common
    _printf_hex_int_ll.o(.text) refers (Weak) to _printf_truncate.o(.text) for _printf_truncate_unsigned
    _printf_hex_int_ll.o(.text) refers to _printf_hex_int_ll.o(.constdata) for .constdata
    _printf_hex_ptr.o(.text) refers to _printf_intcommon.o(.text) for _printf_int_common
    _printf_hex_ptr.o(.text) refers to _printf_hex_ptr.o(.constdata) for .constdata
    _printf_hex_int_ptr.o(.text) refers to _printf_intcommon.o(.text) for _printf_int_common
    _printf_hex_int_ptr.o(.text) refers (Weak) to _printf_truncate.o(.text) for _printf_truncate_unsigned
    _printf_hex_int_ptr.o(.text) refers to _printf_hex_int_ptr.o(.constdata) for .constdata
    _printf_hex_ll_ptr.o(.text) refers to _printf_intcommon.o(.text) for _printf_int_common
    _printf_hex_ll_ptr.o(.text) refers to _printf_hex_ll_ptr.o(.constdata) for .constdata
    _printf_hex_int_ll_ptr.o(.text) refers to _printf_intcommon.o(.text) for _printf_int_common
    _printf_hex_int_ll_ptr.o(.text) refers (Weak) to _printf_truncate.o(.text) for _printf_truncate_unsigned
    _printf_hex_int_ll_ptr.o(.text) refers to _printf_hex_int_ll_ptr.o(.constdata) for .constdata
    __printf_flags.o(.text) refers to _printf_percent.o(.ARM.Collect$$_printf_percent$$00000000) for _printf_percent
    __printf_flags.o(.text) refers to __printf_flags.o(.constdata) for .constdata
    __printf_ss.o(.text) refers to _printf_percent.o(.ARM.Collect$$_printf_percent$$00000000) for _printf_percent
    __printf_flags_ss.o(.text) refers to _printf_percent.o(.ARM.Collect$$_printf_percent$$00000000) for _printf_percent
    __printf_flags_ss.o(.text) refers to __printf_flags_ss.o(.constdata) for .constdata
    __printf_wp.o(.text) refers to __printf_wp.o(i._is_digit) for _is_digit
    __printf_wp.o(.text) refers to _printf_percent.o(.ARM.Collect$$_printf_percent$$00000000) for _printf_percent
    __printf_flags_wp.o(.text) refers to __printf_wp.o(i._is_digit) for _is_digit
    __printf_flags_wp.o(.text) refers to _printf_percent.o(.ARM.Collect$$_printf_percent$$00000000) for _printf_percent
    __printf_flags_wp.o(.text) refers to __printf_flags_wp.o(.constdata) for .constdata
    __printf_ss_wp.o(.text) refers to __printf_wp.o(i._is_digit) for _is_digit
    __printf_ss_wp.o(.text) refers to _printf_percent.o(.ARM.Collect$$_printf_percent$$00000000) for _printf_percent
    __printf_flags_ss_wp.o(.text) refers to __printf_wp.o(i._is_digit) for _is_digit
    __printf_flags_ss_wp.o(.text) refers to _printf_percent.o(.ARM.Collect$$_printf_percent$$00000000) for _printf_percent
    __printf_flags_ss_wp.o(.text) refers to __printf_flags_ss_wp.o(.constdata) for .constdata
    _printf_s.o(.ARM.Collect$$_printf_percent$$00000014) refers (Weak) to _printf_char.o(.text) for _printf_string
    _printf_x.o(.ARM.Collect$$_printf_percent$$0000000C) refers (Weak) to _printf_hex_int_ll_ptr.o(.text) for _printf_int_hex
    _printf_i.o(.ARM.Collect$$_printf_percent$$00000008) refers (Weak) to _printf_dec.o(.text) for _printf_int_dec
    _printf_d.o(.ARM.Collect$$_printf_percent$$00000009) refers (Weak) to _printf_dec.o(.text) for _printf_int_dec
    _printf_g.o(.ARM.Collect$$_printf_percent$$00000005) refers (Weak) to printf1.o(x$fpl$printf1) for _printf_fp_dec
    _printf_percent.o(.ARM.Collect$$_printf_percent$$00000000) refers (Special) to _printf_percent_end.o(.ARM.Collect$$_printf_percent$$00000017) for _printf_percent_end
    __0sscanf.o(.text) refers to scanf_char.o(.text) for __vfscanf_char
    __0sscanf.o(.text) refers to _sgetc.o(.text) for _sgetc
    localeconv.o(.text) refers to _lconv.o(.text) for _get_lconv
    localeconv.o(.text) refers to localeconv.o(.bss) for .bss
    rt_memcpy_v6.o(.text) refers to rt_memcpy_w.o(.text) for __aeabi_memcpy4
    rt_memclr.o(.text) refers to rt_memclr_w.o(.text) for _memset_w
    __main.o(!!!main) refers to __rtentry.o(.ARM.Collect$$rtentry$$00000000) for __rt_entry
    deqf.o(x$fpl$deqf) refers (Special) to usenofp.o(x$fpl$usenofp) for __I$use$fp
    deqf.o(x$fpl$deqf) refers to dnaninf.o(x$fpl$dnaninf) for __fpl_dnaninf
    deqf.o(x$fpl$deqf) refers to dcmpi.o(x$fpl$dcmpinf) for __fpl_dcmp_Inf
    dfix.o(x$fpl$dfix) refers (Special) to usenofp.o(x$fpl$usenofp) for __I$use$fp
    dfix.o(x$fpl$dfix) refers to dnaninf.o(x$fpl$dnaninf) for __fpl_dnaninf
    dfix.o(x$fpl$dfixr) refers (Special) to usenofp.o(x$fpl$usenofp) for __I$use$fp
    dfix.o(x$fpl$dfixr) refers to dnaninf.o(x$fpl$dnaninf) for __fpl_dnaninf
    dfixu.o(x$fpl$dfixu) refers (Special) to usenofp.o(x$fpl$usenofp) for __I$use$fp
    dfixu.o(x$fpl$dfixu) refers to dnaninf.o(x$fpl$dnaninf) for __fpl_dnaninf
    dfixu.o(x$fpl$dfixur) refers (Special) to usenofp.o(x$fpl$usenofp) for __I$use$fp
    dfixu.o(x$fpl$dfixur) refers to dnaninf.o(x$fpl$dnaninf) for __fpl_dnaninf
    dflt_clz.o(x$fpl$dfltu) refers (Special) to usenofp.o(x$fpl$usenofp) for __I$use$fp
    dflt_clz.o(x$fpl$dflt) refers (Special) to usenofp.o(x$fpl$usenofp) for __I$use$fp
    dflt_clz.o(x$fpl$dfltn) refers (Special) to usenofp.o(x$fpl$usenofp) for __I$use$fp
    dfltll_clz.o(x$fpl$dfltll) refers (Special) to usenofp.o(x$fpl$usenofp) for __I$use$fp
    dfltll_clz.o(x$fpl$dfltull) refers (Special) to usenofp.o(x$fpl$usenofp) for __I$use$fp
    dleqf.o(x$fpl$dleqf) refers (Special) to usenofp.o(x$fpl$usenofp) for __I$use$fp
    dleqf.o(x$fpl$dleqf) refers to dnaninf.o(x$fpl$dnaninf) for __fpl_dnaninf
    dleqf.o(x$fpl$dleqf) refers to dcmpi.o(x$fpl$dcmpinf) for __fpl_dcmp_Inf
    dmul.o(x$fpl$dmul) refers (Special) to usenofp.o(x$fpl$usenofp) for __I$use$fp
    dmul.o(x$fpl$dmul) refers to dretinf.o(x$fpl$dretinf) for __fpl_dretinf
    dmul.o(x$fpl$dmul) refers to dnaninf.o(x$fpl$dnaninf) for __fpl_dnaninf
    drleqf.o(x$fpl$drleqf) refers (Special) to usenofp.o(x$fpl$usenofp) for __I$use$fp
    drleqf.o(x$fpl$drleqf) refers to dleqf.o(x$fpl$dleqf) for __fpl_dcmple_InfNaN
    f2d.o(x$fpl$f2d) refers (Special) to usenofp.o(x$fpl$usenofp) for __I$use$fp
    f2d.o(x$fpl$f2d) refers to fnaninf.o(x$fpl$fnaninf) for __fpl_fnaninf
    f2d.o(x$fpl$f2d) refers to dretinf.o(x$fpl$dretinf) for __fpl_dretinf
    printf1.o(x$fpl$printf1) refers to _printf_fp_dec.o(.text) for _printf_fp_dec_real
    scanf1.o(x$fpl$scanf1) refers to scanf_fp.o(.text) for _scanf_really_real
    strtod.o(i.__hardfp_strtod) refers (Special) to usenofp.o(x$fpl$usenofp) for __I$use$fp
    strtod.o(i.__hardfp_strtod) refers to strtod.o(.text) for __strtod_int
    strtod.o(i.__softfp_strtod) refers (Special) to usenofp.o(x$fpl$usenofp) for __I$use$fp
    strtod.o(i.__softfp_strtod) refers to strtod.o(.text) for __strtod_int
    strtod.o(i.strtod) refers (Special) to usenofp.o(x$fpl$usenofp) for __I$use$fp
    strtod.o(i.strtod) refers to strtod.o(.text) for __strtod_int
    __rtentry.o(.ARM.Collect$$rtentry$$00000000) refers (Special) to __rtentry2.o(.ARM.Collect$$rtentry$$0000000A) for __rt_entry_li
    __rtentry.o(.ARM.Collect$$rtentry$$00000000) refers (Special) to __rtentry2.o(.ARM.Collect$$rtentry$$0000000D) for __rt_entry_main
    __rtentry.o(.ARM.Collect$$rtentry$$00000000) refers (Special) to __rtentry2.o(.ARM.Collect$$rtentry$$0000000C) for __rt_entry_postli_1
    __rtentry.o(.ARM.Collect$$rtentry$$00000000) refers (Special) to __rtentry2.o(.ARM.Collect$$rtentry$$00000009) for __rt_entry_postsh_1
    __rtentry.o(.ARM.Collect$$rtentry$$00000000) refers (Special) to __rtentry2.o(.ARM.Collect$$rtentry$$00000002) for __rt_entry_presh_1
    __rtentry.o(.ARM.Collect$$rtentry$$00000000) refers (Special) to __rtentry4.o(.ARM.Collect$$rtentry$$00000004) for __rt_entry_sh
    rt_ctype_table.o(.text) refers to rt_locale_intlibspace.o(.text) for __rt_locale
    rt_ctype_table.o(.text) refers to lc_ctype_c.o(locale$$code) for _get_lc_ctype
    rt_heap_descriptor.o(.text) refers to rt_heap_descriptor.o(.bss) for __rt_heap_descriptor_data
    rt_heap_descriptor_intlibspace.o(.text) refers to libspace.o(.bss) for __libspace_start
    init_alloc.o(.text) refers (Special) to hguard.o(.text) for __heap$guard
    init_alloc.o(.text) refers (Special) to libinit2.o(.ARM.Collect$$libinit$$00000005) for __rt_lib_init_heap_2
    init_alloc.o(.text) refers (Special) to maybetermalloc1.o(.emb_text) for _maybe_terminate_alloc
    init_alloc.o(.text) refers to h1_extend.o(.text) for __Heap_ProvideMemory
    init_alloc.o(.text) refers to defsig_rtmem_outer.o(.text) for __rt_SIGRTMEM
    init_alloc.o(.text) refers to rt_heap_descriptor_intlibspace.o(.text) for __rt_heap_descriptor
    init_alloc.o(.text) refers to h1_init.o(.text) for __Heap_Initialize
    h1_init_mt.o(.text) refers to mutex_dummy.o(.text) for _mutex_initialize
    _printf_intcommon.o(.text) refers (Weak) to _printf_pad.o(.text) for _printf_pre_padding
    _printf_intcommon.o(.text) refers (Weak) to _printf_pad.o(.text) for _printf_pre_padding
    _printf_intcommon.o(.text) refers (Weak) to _printf_pad.o(.text) for _printf_post_padding
    _printf_fp_dec.o(.text) refers (Special) to usenofp.o(x$fpl$usenofp) for __I$use$fp
    _printf_fp_dec.o(.text) refers (Special) to lc_numeric_c.o(locale$$code) for _get_lc_numeric
    _printf_fp_dec.o(.text) refers to bigflt0.o(.text) for _btod_etento
    _printf_fp_dec.o(.text) refers to btod.o(CL$$btod_d2e) for _btod_d2e
    _printf_fp_dec.o(.text) refers to btod.o(CL$$btod_ediv) for _btod_ediv
    _printf_fp_dec.o(.text) refers to btod.o(CL$$btod_emul) for _btod_emul
    _printf_fp_dec.o(.text) refers to lludiv10.o(.text) for _ll_udiv10
    _printf_fp_dec.o(.text) refers to fpclassify.o(i.__ARM_fpclassify) for __ARM_fpclassify
    _printf_fp_dec.o(.text) refers to _printf_fp_infnan.o(.text) for _printf_fp_infnan
    _printf_fp_dec.o(.text) refers (Weak) to _printf_pad.o(.text) for _printf_pre_padding
    _printf_fp_dec.o(.text) refers (Weak) to _printf_pad.o(.text) for _printf_pre_padding
    _printf_fp_dec.o(.text) refers to rt_locale_intlibspace.o(.text) for __rt_locale
    _printf_fp_dec.o(.text) refers (Weak) to _printf_pad.o(.text) for _printf_post_padding
    _printf_char_common.o(.text) refers to __printf_flags_ss_wp.o(.text) for __printf
    _printf_char.o(.text) refers (Weak) to _printf_str.o(.text) for _printf_str
    _printf_char_file.o(.text) refers to _printf_char_common.o(.text) for _printf_char_common
    _printf_char_file.o(.text) refers to ferror.o(.text) for ferror
    _printf_char_file.o(.text) refers to usart.o(i.fputc) for fputc
    _printf_wctomb.o(.text) refers (Special) to _printf_wchar.o(.text) for _printf_lcs_common
    _printf_wctomb.o(.text) refers to _wcrtomb.o(.text) for _wcrtomb
    _printf_wctomb.o(.text) refers (Weak) to _printf_pad.o(.text) for _printf_pre_padding
    _printf_wctomb.o(.text) refers (Weak) to _printf_pad.o(.text) for _printf_post_padding
    _printf_wctomb.o(.text) refers to _printf_wctomb.o(.constdata) for .constdata
    _printf_wctomb.o(.constdata) refers (Special) to _printf_wchar.o(.text) for _printf_lcs_common
    _printf_longlong_dec.o(.text) refers to lludiv10.o(.text) for _ll_udiv10
    _printf_longlong_dec.o(.text) refers to _printf_intcommon.o(.text) for _printf_int_common
    _printf_oct_ll.o(.text) refers to _printf_intcommon.o(.text) for _printf_int_common
    _printf_oct_int.o(.text) refers (Weak) to _printf_truncate.o(.text) for _printf_truncate_unsigned
    _printf_oct_int.o(.text) refers to _printf_intcommon.o(.text) for _printf_int_common
    _printf_oct_int_ll.o(.text) refers to _printf_intcommon.o(.text) for _printf_int_common
    _printf_oct_int_ll.o(.text) refers (Weak) to _printf_truncate.o(.text) for _printf_truncate_unsigned
    _printf_c.o(.ARM.Collect$$_printf_percent$$00000013) refers (Weak) to _printf_char.o(.text) for _printf_char
    _printf_n.o(.ARM.Collect$$_printf_percent$$00000001) refers (Weak) to _printf_charcount.o(.text) for _printf_charcount
    _printf_p.o(.ARM.Collect$$_printf_percent$$00000002) refers (Weak) to _printf_hex_int_ll_ptr.o(.text) for _printf_hex_ptr
    _printf_o.o(.ARM.Collect$$_printf_percent$$0000000B) refers (Weak) to _printf_oct_int_ll.o(.text) for _printf_int_oct
    _printf_u.o(.ARM.Collect$$_printf_percent$$0000000A) refers (Weak) to _printf_dec.o(.text) for _printf_int_dec
    _printf_f.o(.ARM.Collect$$_printf_percent$$00000003) refers (Weak) to printf1.o(x$fpl$printf1) for _printf_fp_dec
    _printf_e.o(.ARM.Collect$$_printf_percent$$00000004) refers (Weak) to printf1.o(x$fpl$printf1) for _printf_fp_dec
    _printf_a.o(.ARM.Collect$$_printf_percent$$00000006) refers (Weak) to printf2.o(x$fpl$printf2) for _printf_fp_hex
    _printf_lli.o(.ARM.Collect$$_printf_percent$$0000000D) refers (Special) to _printf_ll.o(.ARM.Collect$$_printf_percent$$00000007) for _printf_ll
    _printf_lli.o(.ARM.Collect$$_printf_percent$$0000000D) refers (Weak) to _printf_longlong_dec.o(.text) for _printf_longlong_dec
    _printf_lld.o(.ARM.Collect$$_printf_percent$$0000000E) refers (Special) to _printf_ll.o(.ARM.Collect$$_printf_percent$$00000007) for _printf_ll
    _printf_lld.o(.ARM.Collect$$_printf_percent$$0000000E) refers (Weak) to _printf_longlong_dec.o(.text) for _printf_longlong_dec
    _printf_llu.o(.ARM.Collect$$_printf_percent$$0000000F) refers (Special) to _printf_ll.o(.ARM.Collect$$_printf_percent$$00000007) for _printf_ll
    _printf_llu.o(.ARM.Collect$$_printf_percent$$0000000F) refers (Weak) to _printf_longlong_dec.o(.text) for _printf_longlong_dec
    _printf_lc.o(.ARM.Collect$$_printf_percent$$00000015) refers (Special) to _printf_l.o(.ARM.Collect$$_printf_percent$$00000012) for _printf_l
    _printf_lc.o(.ARM.Collect$$_printf_percent$$00000015) refers (Weak) to _printf_wchar.o(.text) for _printf_wchar
    _printf_ls.o(.ARM.Collect$$_printf_percent$$00000016) refers (Special) to _printf_l.o(.ARM.Collect$$_printf_percent$$00000012) for _printf_l
    _printf_ls.o(.ARM.Collect$$_printf_percent$$00000016) refers (Weak) to _printf_wchar.o(.text) for _printf_wstring
    _printf_llo.o(.ARM.Collect$$_printf_percent$$00000010) refers (Special) to _printf_ll.o(.ARM.Collect$$_printf_percent$$00000007) for _printf_ll
    _printf_llo.o(.ARM.Collect$$_printf_percent$$00000010) refers (Weak) to _printf_oct_int_ll.o(.text) for _printf_ll_oct
    _printf_llx.o(.ARM.Collect$$_printf_percent$$00000011) refers (Special) to _printf_ll.o(.ARM.Collect$$_printf_percent$$00000007) for _printf_ll
    _printf_llx.o(.ARM.Collect$$_printf_percent$$00000011) refers (Weak) to _printf_hex_int_ll_ptr.o(.text) for _printf_ll_hex
    scanf_fp.o(.text) refers (Special) to usenofp.o(x$fpl$usenofp) for __I$use$fp
    scanf_fp.o(.text) refers (Special) to lc_numeric_c.o(locale$$code) for _get_lc_numeric
    scanf_fp.o(.text) refers to rt_errno_addr_intlibspace.o(.text) for __aeabi_errno_addr
    scanf_fp.o(.text) refers to bigflt0.o(.text) for _btod_etento
    scanf_fp.o(.text) refers to btod.o(CL$$btod_emuld) for _btod_emuld
    scanf_fp.o(.text) refers to btod.o(CL$$btod_edivd) for _btod_edivd
    scanf_fp.o(.text) refers to rt_locale_intlibspace.o(.text) for __rt_locale
    scanf_fp.o(.text) refers to scanf2.o(x$fpl$scanf2) for _scanf_infnan
    scanf_fp.o(.text) refers to __printf_wp.o(i._is_digit) for _is_digit
    scanf_fp.o(.text) refers to narrow.o(i.__mathlib_narrow) for __mathlib_narrow
    scanf_fp.o(.text) refers to fpconst.o(c$$dinf) for __huge_val
    scanf_char.o(.text) refers to _scanf.o(.text) for __vfscanf
    scanf_char.o(.text) refers to isspace.o(.text) for isspace
    strtod.o(.text) refers (Special) to lc_numeric_c.o(locale$$code) for _get_lc_numeric
    strtod.o(.text) refers to scanf1.o(x$fpl$scanf1) for _scanf_real
    strtod.o(.text) refers to _sgetc.o(.text) for _sgetc
    strtod.o(.text) refers to isspace.o(.text) for isspace
    _lconv.o(.text) refers (Special) to lc_monetary_c.o(locale$$code) for _get_lc_monetary
    _lconv.o(.text) refers (Special) to lc_numeric_c.o(locale$$code) for _get_lc_numeric
    _lconv.o(.text) refers to rt_locale_intlibspace.o(.text) for __rt_locale
    _get_argv.o(.text) refers (Special) to hrguard.o(.text) for __heap_region$guard
    _get_argv.o(.text) refers to h1_alloc.o(.text) for malloc
    _get_argv.o(.text) refers to defsig_rtmem_outer.o(.text) for __rt_SIGRTMEM
    _get_argv.o(.text) refers to sys_command.o(.text) for _sys_command_string
    libinit2.o(.ARM.Collect$$libinit$$00000001) refers to fpinit.o(x$fpl$fpinit) for _fp_init
    libinit2.o(.ARM.Collect$$libinit$$00000005) refers (Weak) to init_alloc.o(.text) for _init_alloc
    libinit2.o(.ARM.Collect$$libinit$$0000000F) refers (Weak) to rt_locale_intlibspace.o(.text) for __rt_locale
    libinit2.o(.ARM.Collect$$libinit$$00000010) refers to libinit2.o(.ARM.Collect$$libinit$$0000000F) for .ARM.Collect$$libinit$$0000000F
    libinit2.o(.ARM.Collect$$libinit$$00000012) refers to libinit2.o(.ARM.Collect$$libinit$$0000000F) for .ARM.Collect$$libinit$$0000000F
    libinit2.o(.ARM.Collect$$libinit$$00000012) refers (Weak) to lc_ctype_c.o(locale$$code) for _get_lc_ctype
    libinit2.o(.ARM.Collect$$libinit$$00000014) refers to libinit2.o(.ARM.Collect$$libinit$$0000000F) for .ARM.Collect$$libinit$$0000000F
    libinit2.o(.ARM.Collect$$libinit$$00000014) refers (Weak) to lc_monetary_c.o(locale$$code) for _get_lc_monetary
    libinit2.o(.ARM.Collect$$libinit$$00000016) refers to libinit2.o(.ARM.Collect$$libinit$$0000000F) for .ARM.Collect$$libinit$$0000000F
    libinit2.o(.ARM.Collect$$libinit$$00000016) refers (Weak) to lc_numeric_c.o(locale$$code) for _get_lc_numeric
    libinit2.o(.ARM.Collect$$libinit$$00000018) refers to libinit2.o(.ARM.Collect$$libinit$$0000000F) for .ARM.Collect$$libinit$$0000000F
    libinit2.o(.ARM.Collect$$libinit$$00000026) refers to argv_veneer.o(.emb_text) for __ARM_argv_veneer
    libinit2.o(.ARM.Collect$$libinit$$00000027) refers to argv_veneer.o(.emb_text) for __ARM_argv_veneer
    dcmpi.o(x$fpl$dcmpinf) refers (Special) to usenofp.o(x$fpl$usenofp) for __I$use$fp
    dnaninf.o(x$fpl$dnaninf) refers (Special) to usenofp.o(x$fpl$usenofp) for __I$use$fp
    dretinf.o(x$fpl$dretinf) refers (Special) to usenofp.o(x$fpl$usenofp) for __I$use$fp
    fnaninf.o(x$fpl$fnaninf) refers (Special) to usenofp.o(x$fpl$usenofp) for __I$use$fp
    printf2.o(x$fpl$printf2) refers to _printf_fp_hex.o(.text) for _printf_fp_hex_real
    printf2b.o(x$fpl$printf2) refers to _printf_fp_hex.o(.text) for _printf_fp_hex_real
    sys_command.o(.text) refers (Special) to use_no_semi.o(.text) for __I$use$semihosting
    sys_command.o(.text) refers (Special) to indicate_semi.o(.text) for __semihosting_library_function
    libspace.o(.text) refers to libspace.o(.bss) for __libspace_start
    __rtentry2.o(.ARM.Collect$$rtentry$$00000008) refers to boardinit2.o(.text) for _platform_post_stackheap_init
    __rtentry2.o(.ARM.Collect$$rtentry$$0000000A) refers to libinit.o(.ARM.Collect$$libinit$$00000000) for __rt_lib_init
    __rtentry2.o(.ARM.Collect$$rtentry$$0000000B) refers to boardinit3.o(.text) for _platform_post_lib_init
    __rtentry2.o(.ARM.Collect$$rtentry$$0000000D) refers to main.o(i.main) for main
    __rtentry2.o(.ARM.Collect$$rtentry$$0000000D) refers to exit.o(.text) for exit
    __rtentry2.o(.ARM.exidx) refers to __rtentry2.o(.ARM.Collect$$rtentry$$00000001) for .ARM.Collect$$rtentry$$00000001
    __rtentry2.o(.ARM.exidx) refers to __rtentry2.o(.ARM.Collect$$rtentry$$00000008) for .ARM.Collect$$rtentry$$00000008
    __rtentry2.o(.ARM.exidx) refers to __rtentry2.o(.ARM.Collect$$rtentry$$0000000A) for .ARM.Collect$$rtentry$$0000000A
    __rtentry2.o(.ARM.exidx) refers to __rtentry2.o(.ARM.Collect$$rtentry$$0000000B) for .ARM.Collect$$rtentry$$0000000B
    __rtentry2.o(.ARM.exidx) refers to __rtentry2.o(.ARM.Collect$$rtentry$$0000000D) for .ARM.Collect$$rtentry$$0000000D
    __rtentry4.o(.ARM.Collect$$rtentry$$00000004) refers to sys_stackheap_outer.o(.text) for __user_setup_stackheap
    __rtentry4.o(.ARM.exidx) refers to __rtentry4.o(.ARM.Collect$$rtentry$$00000004) for .ARM.Collect$$rtentry$$00000004
    rt_locale.o(.text) refers to rt_locale.o(.bss) for __rt_locale_data
    rt_locale_intlibspace.o(.text) refers to libspace.o(.bss) for __libspace_start
    rt_errno_addr.o(.text) refers to rt_errno_addr.o(.bss) for __aeabi_errno_addr_data
    rt_errno_addr_intlibspace.o(.text) refers to libspace.o(.bss) for __libspace_start
    maybetermalloc2.o(.emb_text) refers (Special) to term_alloc.o(.text) for _terminate_alloc
    h1_extend.o(.text) refers to h1_free.o(.text) for free
    h1_extend_mt.o(.text) refers to h1_free_mt.o(.text) for _free_internal
    isspace.o(.text) refers to rt_ctype_table.o(.text) for __rt_ctype_table
    _printf_fp_hex.o(.text) refers (Special) to usenofp.o(x$fpl$usenofp) for __I$use$fp
    _printf_fp_hex.o(.text) refers to fpclassify.o(i.__ARM_fpclassify) for __ARM_fpclassify
    _printf_fp_hex.o(.text) refers to _printf_fp_infnan.o(.text) for _printf_fp_infnan
    _printf_fp_hex.o(.text) refers (Weak) to _printf_pad.o(.text) for _printf_pre_padding
    _printf_fp_hex.o(.text) refers (Weak) to _printf_pad.o(.text) for _printf_pre_padding
    _printf_fp_hex.o(.text) refers (Weak) to _printf_pad.o(.text) for _printf_post_padding
    _printf_fp_hex.o(.text) refers to _printf_fp_hex.o(.constdata) for .constdata
    _printf_fp_hex.o(.constdata) refers (Special) to usenofp.o(x$fpl$usenofp) for __I$use$fp
    _printf_fp_infnan.o(.text) refers (Weak) to _printf_pad.o(.text) for _printf_pre_padding
    _printf_fp_infnan.o(.text) refers (Weak) to _printf_pad.o(.text) for _printf_post_padding
    _printf_wchar.o(.text) refers (Weak) to _printf_wctomb.o(.text) for _printf_wctomb
    _scanf.o(.text) refers (Weak) to scanf1.o(x$fpl$scanf1) for _scanf_real
    bigflt0.o(.text) refers (Special) to usenofp.o(x$fpl$usenofp) for __I$use$fp
    bigflt0.o(.text) refers to btod.o(CL$$btod_emul) for _btod_emul
    bigflt0.o(.text) refers to btod.o(CL$$btod_ediv) for _btod_ediv
    bigflt0.o(.text) refers to bigflt0.o(.constdata) for .constdata
    bigflt0.o(.constdata) refers (Special) to usenofp.o(x$fpl$usenofp) for __I$use$fp
    btod.o(CL$$btod_d2e) refers (Special) to usenofp.o(x$fpl$usenofp) for __I$use$fp
    btod.o(CL$$btod_d2e) refers to btod.o(CL$$btod_d2e_norm_op1) for _d2e_norm_op1
    btod.o(CL$$btod_d2e_norm_op1) refers (Special) to usenofp.o(x$fpl$usenofp) for __I$use$fp
    btod.o(CL$$btod_d2e_norm_op1) refers to btod.o(CL$$btod_d2e_denorm_low) for _d2e_denorm_low
    btod.o(CL$$btod_d2e_denorm_low) refers (Special) to usenofp.o(x$fpl$usenofp) for __I$use$fp
    btod.o(CL$$btod_emul) refers (Special) to usenofp.o(x$fpl$usenofp) for __I$use$fp
    btod.o(CL$$btod_emul) refers to btod.o(CL$$btod_mult_common) for __btod_mult_common
    btod.o(CL$$btod_emul) refers to btod.o(CL$$btod_e2e) for _e2e
    btod.o(CL$$btod_ediv) refers (Special) to usenofp.o(x$fpl$usenofp) for __I$use$fp
    btod.o(CL$$btod_ediv) refers to btod.o(CL$$btod_div_common) for __btod_div_common
    btod.o(CL$$btod_ediv) refers to btod.o(CL$$btod_e2e) for _e2e
    btod.o(CL$$btod_emuld) refers (Special) to usenofp.o(x$fpl$usenofp) for __I$use$fp
    btod.o(CL$$btod_emuld) refers to btod.o(CL$$btod_mult_common) for __btod_mult_common
    btod.o(CL$$btod_emuld) refers to btod.o(CL$$btod_e2d) for _e2d
    btod.o(CL$$btod_edivd) refers (Special) to usenofp.o(x$fpl$usenofp) for __I$use$fp
    btod.o(CL$$btod_edivd) refers to btod.o(CL$$btod_div_common) for __btod_div_common
    btod.o(CL$$btod_edivd) refers to btod.o(CL$$btod_e2d) for _e2d
    btod.o(CL$$btod_e2e) refers (Special) to usenofp.o(x$fpl$usenofp) for __I$use$fp
    btod.o(CL$$btod_e2d) refers (Special) to usenofp.o(x$fpl$usenofp) for __I$use$fp
    btod.o(CL$$btod_e2d) refers to btod.o(CL$$btod_e2e) for _e2e
    btod.o(CL$$btod_mult_common) refers (Special) to usenofp.o(x$fpl$usenofp) for __I$use$fp
    btod.o(CL$$btod_div_common) refers (Special) to usenofp.o(x$fpl$usenofp) for __I$use$fp
    _wcrtomb.o(.text) refers to rt_ctype_table.o(.text) for __rt_ctype_table
    lc_ctype_c.o(locale$$data) refers (Special) to libinit2.o(.ARM.Collect$$libinit$$00000012) for __rt_lib_init_lc_ctype_2
    lc_ctype_c.o(locale$$code) refers (Special) to libinit2.o(.ARM.Collect$$libinit$$00000012) for __rt_lib_init_lc_ctype_2
    lc_ctype_c.o(locale$$code) refers to strcmpv7m.o(.text) for strcmp
    lc_ctype_c.o(locale$$code) refers to lc_ctype_c.o(locale$$data) for __lcctype_c_name
    lc_monetary_c.o(locale$$data) refers (Special) to libinit2.o(.ARM.Collect$$libinit$$00000014) for __rt_lib_init_lc_monetary_2
    lc_monetary_c.o(locale$$code) refers (Special) to libinit2.o(.ARM.Collect$$libinit$$00000014) for __rt_lib_init_lc_monetary_2
    lc_monetary_c.o(locale$$code) refers to strcmpv7m.o(.text) for strcmp
    lc_monetary_c.o(locale$$code) refers to lc_monetary_c.o(locale$$data) for __lcmon_c_name
    lc_numeric_c.o(locale$$data) refers (Special) to libinit2.o(.ARM.Collect$$libinit$$00000016) for __rt_lib_init_lc_numeric_2
    lc_numeric_c.o(locale$$code) refers (Special) to libinit2.o(.ARM.Collect$$libinit$$00000016) for __rt_lib_init_lc_numeric_2
    lc_numeric_c.o(locale$$code) refers to strcmpv7m.o(.text) for strcmp
    lc_numeric_c.o(locale$$code) refers to lc_numeric_c.o(locale$$data) for __lcnum_c_name
    defsig_rtmem_outer.o(.text) refers to defsig_rtmem_inner.o(.text) for __rt_SIGRTMEM_inner
    defsig_rtmem_outer.o(.text) refers to defsig_exit.o(.text) for __sig_exit
    defsig_rtmem_formal.o(.text) refers to rt_raise.o(.text) for __rt_raise
    heapauxa.o(.text) refers to heapauxa.o(.data) for .data
    argv_veneer.o(.emb_text) refers to no_argv.o(.text) for __ARM_get_argv
    fpconst.o(c$$dinf) refers (Special) to usenofp.o(x$fpl$usenofp) for __I$use$fp
    fpconst.o(c$$dnan) refers (Special) to usenofp.o(x$fpl$usenofp) for __I$use$fp
    fpconst.o(c$$finf) refers (Special) to usenofp.o(x$fpl$usenofp) for __I$use$fp
    istatus.o(x$fpl$ieeestatus) refers (Special) to usenofp.o(x$fpl$usenofp) for __I$use$fp
    scanf2.o(x$fpl$scanf2) refers to scanf_hexfp.o(.text) for _scanf_really_hex_real
    scanf2.o(x$fpl$scanf2) refers to scanf_infnan.o(.text) for _scanf_really_infnan
    scanf2b.o(x$fpl$scanf2) refers to scanf_hexfp.o(.text) for _scanf_really_hex_real
    scanf2b.o(x$fpl$scanf2) refers to scanf_infnan.o(.text) for _scanf_really_infnan
    fpclassify.o(i.__ARM_fpclassify) refers (Special) to usenofp.o(x$fpl$usenofp) for __I$use$fp
    narrow.o(i.__hardfp___mathlib_tofloat) refers (Special) to usenofp.o(x$fpl$usenofp) for __I$use$fp
    narrow.o(i.__hardfp___mathlib_tofloat) refers to frexp.o(i.frexp) for frexp
    narrow.o(i.__hardfp___mathlib_tofloat) refers to deqf.o(x$fpl$deqf) for __aeabi_cdcmpeq
    narrow.o(i.__hardfp___mathlib_tofloat) refers to d2f.o(x$fpl$d2f) for __aeabi_d2f
    narrow.o(i.__hardfp___mathlib_tofloat) refers to _rserrno.o(.text) for __set_errno
    narrow.o(i.__hardfp___mathlib_tofloat) refers to drleqf.o(x$fpl$drleqf) for __aeabi_cdrcmple
    narrow.o(i.__mathlib_narrow) refers (Special) to usenofp.o(x$fpl$usenofp) for __I$use$fp
    narrow.o(i.__mathlib_narrow) refers to frexp.o(i.frexp) for frexp
    narrow.o(i.__mathlib_narrow) refers to deqf.o(x$fpl$deqf) for __aeabi_cdcmpeq
    narrow.o(i.__mathlib_narrow) refers to d2f.o(x$fpl$d2f) for __aeabi_d2f
    narrow.o(i.__mathlib_narrow) refers to _rserrno.o(.text) for __set_errno
    narrow.o(i.__mathlib_narrow) refers to drleqf.o(x$fpl$drleqf) for __aeabi_cdrcmple
    narrow.o(i.__mathlib_tofloat) refers (Special) to usenofp.o(x$fpl$usenofp) for __I$use$fp
    narrow.o(i.__mathlib_tofloat) refers to frexp.o(i.frexp) for frexp
    narrow.o(i.__mathlib_tofloat) refers to deqf.o(x$fpl$deqf) for __aeabi_cdcmpeq
    narrow.o(i.__mathlib_tofloat) refers to d2f.o(x$fpl$d2f) for __aeabi_d2f
    narrow.o(i.__mathlib_tofloat) refers to _rserrno.o(.text) for __set_errno
    narrow.o(i.__mathlib_tofloat) refers to drleqf.o(x$fpl$drleqf) for __aeabi_cdrcmple
    narrow.o(i.__softfp___mathlib_tofloat) refers (Special) to usenofp.o(x$fpl$usenofp) for __I$use$fp
    narrow.o(i.__softfp___mathlib_tofloat) refers to frexp.o(i.frexp) for frexp
    narrow.o(i.__softfp___mathlib_tofloat) refers to deqf.o(x$fpl$deqf) for __aeabi_cdcmpeq
    narrow.o(i.__softfp___mathlib_tofloat) refers to d2f.o(x$fpl$d2f) for __aeabi_d2f
    narrow.o(i.__softfp___mathlib_tofloat) refers to _rserrno.o(.text) for __set_errno
    narrow.o(i.__softfp___mathlib_tofloat) refers to drleqf.o(x$fpl$drleqf) for __aeabi_cdrcmple
    sys_stackheap_outer.o(.text) refers to libspace.o(.text) for __user_perproc_libspace
    sys_stackheap_outer.o(.text) refers to startup_stm32f429xx.o(.text) for __user_initial_stackheap
    rt_raise.o(.text) refers to __raise.o(.text) for __raise
    rt_raise.o(.text) refers to usart.o(i._sys_exit) for _sys_exit
    term_alloc.o(.text) refers (Special) to libshutdown2.o(.ARM.Collect$$libshutdown$$0000000E) for __rt_lib_shutdown_heap_2
    term_alloc.o(.text) refers to rt_heap_descriptor_intlibspace.o(.text) for __rt_heap_descriptor
    term_alloc.o(.text) refers to h1_final.o(.text) for __Heap_Finalize
    _rserrno.o(.text) refers to rt_errno_addr_intlibspace.o(.text) for __aeabi_errno_addr
    scanf_hexfp.o(.text) refers to _chval.o(.text) for _chval
    scanf_hexfp.o(.text) refers to llshl.o(.text) for __aeabi_llsl
    scanf_hexfp.o(.text) refers to ldexp.o(i.__support_ldexp) for __support_ldexp
    scanf_hexfp.o(.text) refers to narrow.o(i.__mathlib_narrow) for __mathlib_narrow
    exit.o(.text) refers to rtexit.o(.ARM.Collect$$rtexit$$00000000) for __rt_exit
    defsig_exit.o(.text) refers to usart.o(i._sys_exit) for _sys_exit
    defsig_rtmem_inner.o(.text) refers to defsig_general.o(.text) for __default_signal_display
    _get_argv_nomalloc.o(.text) refers (Special) to hrguard.o(.text) for __heap_region$guard
    _get_argv_nomalloc.o(.text) refers to defsig_rtmem_outer.o(.text) for __rt_SIGRTMEM
    _get_argv_nomalloc.o(.text) refers to sys_command.o(.text) for _sys_command_string
    libinit.o(.ARM.Collect$$libinit$$00000000) refers (Special) to libinit2.o(.ARM.Collect$$libinit$$0000002E) for __rt_lib_init_alloca_1
    libinit.o(.ARM.Collect$$libinit$$00000000) refers (Special) to libinit2.o(.ARM.Collect$$libinit$$0000002C) for __rt_lib_init_argv_1
    libinit.o(.ARM.Collect$$libinit$$00000000) refers (Special) to libinit2.o(.ARM.Collect$$libinit$$0000001B) for __rt_lib_init_atexit_1
    libinit.o(.ARM.Collect$$libinit$$00000000) refers (Special) to libinit2.o(.ARM.Collect$$libinit$$00000021) for __rt_lib_init_clock_1
    libinit.o(.ARM.Collect$$libinit$$00000000) refers (Special) to libinit2.o(.ARM.Collect$$libinit$$00000032) for __rt_lib_init_cpp_1
    libinit.o(.ARM.Collect$$libinit$$00000000) refers (Special) to libinit2.o(.ARM.Collect$$libinit$$00000030) for __rt_lib_init_exceptions_1
    libinit.o(.ARM.Collect$$libinit$$00000000) refers (Special) to libinit2.o(.ARM.Collect$$libinit$$00000001) for __rt_lib_init_fp_1
    libinit.o(.ARM.Collect$$libinit$$00000000) refers (Special) to libinit2.o(.ARM.Collect$$libinit$$0000001F) for __rt_lib_init_fp_trap_1
    libinit.o(.ARM.Collect$$libinit$$00000000) refers (Special) to libinit2.o(.ARM.Collect$$libinit$$00000023) for __rt_lib_init_getenv_1
    libinit.o(.ARM.Collect$$libinit$$00000000) refers (Special) to libinit2.o(.ARM.Collect$$libinit$$0000000A) for __rt_lib_init_heap_1
    libinit.o(.ARM.Collect$$libinit$$00000000) refers (Special) to libinit2.o(.ARM.Collect$$libinit$$00000011) for __rt_lib_init_lc_collate_1
    libinit.o(.ARM.Collect$$libinit$$00000000) refers (Special) to libinit2.o(.ARM.Collect$$libinit$$00000013) for __rt_lib_init_lc_ctype_1
    libinit.o(.ARM.Collect$$libinit$$00000000) refers (Special) to libinit2.o(.ARM.Collect$$libinit$$00000015) for __rt_lib_init_lc_monetary_1
    libinit.o(.ARM.Collect$$libinit$$00000000) refers (Special) to libinit2.o(.ARM.Collect$$libinit$$00000017) for __rt_lib_init_lc_numeric_1
    libinit.o(.ARM.Collect$$libinit$$00000000) refers (Special) to libinit2.o(.ARM.Collect$$libinit$$00000019) for __rt_lib_init_lc_time_1
    libinit.o(.ARM.Collect$$libinit$$00000000) refers (Special) to libinit2.o(.ARM.Collect$$libinit$$00000004) for __rt_lib_init_preinit_1
    libinit.o(.ARM.Collect$$libinit$$00000000) refers (Special) to libinit2.o(.ARM.Collect$$libinit$$0000000E) for __rt_lib_init_rand_1
    libinit.o(.ARM.Collect$$libinit$$00000000) refers (Special) to libinit2.o(.ARM.Collect$$libinit$$00000033) for __rt_lib_init_return
    libinit.o(.ARM.Collect$$libinit$$00000000) refers (Special) to libinit2.o(.ARM.Collect$$libinit$$0000001D) for __rt_lib_init_signal_1
    libinit.o(.ARM.Collect$$libinit$$00000000) refers (Special) to libinit2.o(.ARM.Collect$$libinit$$00000025) for __rt_lib_init_stdio_1
    libinit.o(.ARM.Collect$$libinit$$00000000) refers (Special) to libinit2.o(.ARM.Collect$$libinit$$0000000C) for __rt_lib_init_user_alloc_1
    d2f.o(x$fpl$d2f) refers (Special) to usenofp.o(x$fpl$usenofp) for __I$use$fp
    d2f.o(x$fpl$d2f) refers to fretinf.o(x$fpl$fretinf) for __fpl_fretinf
    d2f.o(x$fpl$d2f) refers to dnaninf.o(x$fpl$dnaninf) for __fpl_dnaninf
    frexp.o(i.__hardfp_frexp) refers (Special) to usenofp.o(x$fpl$usenofp) for __I$use$fp
    frexp.o(i.__hardfp_frexp) refers to dmul.o(x$fpl$dmul) for __aeabi_dmul
    frexp.o(i.__softfp_frexp) refers (Special) to usenofp.o(x$fpl$usenofp) for __I$use$fp
    frexp.o(i.__softfp_frexp) refers to dmul.o(x$fpl$dmul) for __aeabi_dmul
    frexp.o(i.frexp) refers (Special) to usenofp.o(x$fpl$usenofp) for __I$use$fp
    frexp.o(i.frexp) refers to dmul.o(x$fpl$dmul) for __aeabi_dmul
    rtexit.o(.ARM.Collect$$rtexit$$00000000) refers (Special) to rtexit2.o(.ARM.Collect$$rtexit$$00000004) for __rt_exit_exit
    rtexit.o(.ARM.Collect$$rtexit$$00000000) refers (Special) to rtexit2.o(.ARM.Collect$$rtexit$$00000003) for __rt_exit_ls
    rtexit.o(.ARM.Collect$$rtexit$$00000000) refers (Special) to rtexit2.o(.ARM.Collect$$rtexit$$00000002) for __rt_exit_prels_1
    rtexit.o(.ARM.exidx) refers (Special) to rtexit2.o(.ARM.Collect$$rtexit$$00000004) for __rt_exit_exit
    rtexit.o(.ARM.exidx) refers (Special) to rtexit2.o(.ARM.Collect$$rtexit$$00000003) for __rt_exit_ls
    rtexit.o(.ARM.exidx) refers (Special) to rtexit2.o(.ARM.Collect$$rtexit$$00000002) for __rt_exit_prels_1
    rtexit.o(.ARM.exidx) refers to rtexit.o(.ARM.Collect$$rtexit$$00000000) for .ARM.Collect$$rtexit$$00000000
    __raise.o(.text) refers to defsig.o(CL$$defsig) for __default_signal_handler
    defsig_general.o(.text) refers to usart.o(i._ttywrch) for _ttywrch
    libshutdown2.o(.ARM.Collect$$libshutdown$$0000000D) refers (Weak) to term_alloc.o(.text) for _terminate_alloc
    fretinf.o(x$fpl$fretinf) refers (Special) to usenofp.o(x$fpl$usenofp) for __I$use$fp
    ldexp.o(i.__hardfp_ldexp) refers (Special) to usenofp.o(x$fpl$usenofp) for __I$use$fp
    ldexp.o(i.__hardfp_ldexp) refers to deqf.o(x$fpl$deqf) for __aeabi_cdcmpeq
    ldexp.o(i.__hardfp_ldexp) refers to scalbn.o(x$fpl$scalbn) for __ARM_scalbn
    ldexp.o(i.__hardfp_ldexp) refers to _rserrno.o(.text) for __set_errno
    ldexp.o(i.__hardfp_ldexp) refers to dunder.o(i.__mathlib_dbl_underflow) for __mathlib_dbl_underflow
    ldexp.o(i.__hardfp_ldexp) refers to dunder.o(i.__mathlib_dbl_overflow) for __mathlib_dbl_overflow
    ldexp.o(i.__softfp_ldexp) refers (Special) to usenofp.o(x$fpl$usenofp) for __I$use$fp
    ldexp.o(i.__softfp_ldexp) refers to ldexp.o(i.__hardfp_ldexp) for __hardfp_ldexp
    ldexp.o(i.__support_ldexp) refers (Special) to usenofp.o(x$fpl$usenofp) for __I$use$fp
    ldexp.o(i.__support_ldexp) refers to ldexp.o(i.__hardfp_ldexp) for __hardfp_ldexp
    ldexp.o(i.ldexp) refers (Special) to usenofp.o(x$fpl$usenofp) for __I$use$fp
    ldexp.o(i.ldexp) refers to ldexp.o(i.__hardfp_ldexp) for __hardfp_ldexp
    ldexp_x.o(i.____hardfp_ldexp$lsc) refers (Special) to usenofp.o(x$fpl$usenofp) for __I$use$fp
    ldexp_x.o(i.____hardfp_ldexp$lsc) refers to deqf.o(x$fpl$deqf) for __aeabi_cdcmpeq
    ldexp_x.o(i.____hardfp_ldexp$lsc) refers to scalbn.o(x$fpl$scalbn) for __ARM_scalbn
    ldexp_x.o(i.____hardfp_ldexp$lsc) refers to _rserrno.o(.text) for __set_errno
    ldexp_x.o(i.____hardfp_ldexp$lsc) refers to qnan.o(.constdata) for __mathlib_zero
    ldexp_x.o(i.____softfp_ldexp$lsc) refers (Special) to usenofp.o(x$fpl$usenofp) for __I$use$fp
    ldexp_x.o(i.____softfp_ldexp$lsc) refers to ldexp_x.o(i.____hardfp_ldexp$lsc) for ____hardfp_ldexp$lsc
    ldexp_x.o(i.____support_ldexp$lsc) refers (Special) to usenofp.o(x$fpl$usenofp) for __I$use$fp
    ldexp_x.o(i.____support_ldexp$lsc) refers to ldexp_x.o(i.____hardfp_ldexp$lsc) for ____hardfp_ldexp$lsc
    ldexp_x.o(i.__ldexp$lsc) refers (Special) to usenofp.o(x$fpl$usenofp) for __I$use$fp
    ldexp_x.o(i.__ldexp$lsc) refers to ldexp_x.o(i.____hardfp_ldexp$lsc) for ____hardfp_ldexp$lsc
    rtexit2.o(.ARM.Collect$$rtexit$$00000003) refers to libshutdown.o(.ARM.Collect$$libshutdown$$00000000) for __rt_lib_shutdown
    rtexit2.o(.ARM.Collect$$rtexit$$00000004) refers to usart.o(i._sys_exit) for _sys_exit
    rtexit2.o(.ARM.exidx) refers to rtexit2.o(.ARM.Collect$$rtexit$$00000001) for .ARM.Collect$$rtexit$$00000001
    rtexit2.o(.ARM.exidx) refers to rtexit2.o(.ARM.Collect$$rtexit$$00000003) for .ARM.Collect$$rtexit$$00000003
    rtexit2.o(.ARM.exidx) refers to rtexit2.o(.ARM.Collect$$rtexit$$00000004) for .ARM.Collect$$rtexit$$00000004
    defsig.o(CL$$defsig) refers to defsig_rtmem_inner.o(.text) for __rt_SIGRTMEM_inner
    scalbn.o(x$fpl$scalbn) refers (Special) to usenofp.o(x$fpl$usenofp) for __I$use$fp
    scalbn.o(x$fpl$scalbn) refers to dcheck1.o(x$fpl$dcheck1) for __fpl_dcheck_NaN1
    dunder.o(i.__mathlib_dbl_divzero) refers to ddiv.o(x$fpl$ddiv) for __aeabi_ddiv
    dunder.o(i.__mathlib_dbl_infnan) refers to daddsub_clz.o(x$fpl$dadd) for __aeabi_dadd
    dunder.o(i.__mathlib_dbl_infnan2) refers to daddsub_clz.o(x$fpl$dadd) for __aeabi_dadd
    dunder.o(i.__mathlib_dbl_invalid) refers to ddiv.o(x$fpl$ddiv) for __aeabi_ddiv
    dunder.o(i.__mathlib_dbl_overflow) refers to dmul.o(x$fpl$dmul) for __aeabi_dmul
    dunder.o(i.__mathlib_dbl_posinfnan) refers to dmul.o(x$fpl$dmul) for __aeabi_dmul
    dunder.o(i.__mathlib_dbl_underflow) refers to dmul.o(x$fpl$dmul) for __aeabi_dmul
    qnan.o(.constdata) refers (Special) to usenofp.o(x$fpl$usenofp) for __I$use$fp
    defsig_abrt_inner.o(.text) refers to defsig_general.o(.text) for __default_signal_display
    defsig_fpe_inner.o(.text) refers to defsig_general.o(.text) for __default_signal_display
    defsig_rtred_inner.o(.text) refers to defsig_general.o(.text) for __default_signal_display
    defsig_stak_inner.o(.text) refers to defsig_general.o(.text) for __default_signal_display
    defsig_pvfn_inner.o(.text) refers to defsig_general.o(.text) for __default_signal_display
    defsig_cppl_inner.o(.text) refers to defsig_general.o(.text) for __default_signal_display
    defsig_segv_inner.o(.text) refers to defsig_general.o(.text) for __default_signal_display
    defsig_other.o(.text) refers to defsig_general.o(.text) for __default_signal_display
    libshutdown.o(.ARM.Collect$$libshutdown$$00000000) refers (Special) to libshutdown2.o(.ARM.Collect$$libshutdown$$00000002) for __rt_lib_shutdown_cpp_1
    libshutdown.o(.ARM.Collect$$libshutdown$$00000000) refers (Special) to libshutdown2.o(.ARM.Collect$$libshutdown$$00000007) for __rt_lib_shutdown_fp_trap_1
    libshutdown.o(.ARM.Collect$$libshutdown$$00000000) refers (Special) to libshutdown2.o(.ARM.Collect$$libshutdown$$0000000F) for __rt_lib_shutdown_heap_1
    libshutdown.o(.ARM.Collect$$libshutdown$$00000000) refers (Special) to libshutdown2.o(.ARM.Collect$$libshutdown$$00000010) for __rt_lib_shutdown_return
    libshutdown.o(.ARM.Collect$$libshutdown$$00000000) refers (Special) to libshutdown2.o(.ARM.Collect$$libshutdown$$0000000A) for __rt_lib_shutdown_signal_1
    libshutdown.o(.ARM.Collect$$libshutdown$$00000000) refers (Special) to libshutdown2.o(.ARM.Collect$$libshutdown$$00000004) for __rt_lib_shutdown_stdio_1
    libshutdown.o(.ARM.Collect$$libshutdown$$00000000) refers (Special) to libshutdown2.o(.ARM.Collect$$libshutdown$$0000000C) for __rt_lib_shutdown_user_alloc_1
    daddsub_clz.o(x$fpl$dadd) refers (Special) to usenofp.o(x$fpl$usenofp) for __I$use$fp
    daddsub_clz.o(x$fpl$dadd) refers to daddsub_clz.o(x$fpl$dsub) for _dsub1
    daddsub_clz.o(x$fpl$dadd) refers to dretinf.o(x$fpl$dretinf) for __fpl_dretinf
    daddsub_clz.o(x$fpl$dadd) refers to dnaninf.o(x$fpl$dnaninf) for __fpl_dnaninf
    daddsub_clz.o(x$fpl$drsb) refers (Special) to usenofp.o(x$fpl$usenofp) for __I$use$fp
    daddsub_clz.o(x$fpl$drsb) refers to daddsub_clz.o(x$fpl$dadd) for _dadd1
    daddsub_clz.o(x$fpl$drsb) refers to daddsub_clz.o(x$fpl$dsub) for _dsub1
    daddsub_clz.o(x$fpl$dsub) refers (Special) to usenofp.o(x$fpl$usenofp) for __I$use$fp
    daddsub_clz.o(x$fpl$dsub) refers to daddsub_clz.o(x$fpl$dadd) for _dadd1
    daddsub_clz.o(x$fpl$dsub) refers to dnaninf.o(x$fpl$dnaninf) for __fpl_dnaninf
    dcheck1.o(x$fpl$dcheck1) refers (Special) to usenofp.o(x$fpl$usenofp) for __I$use$fp
    dcheck1.o(x$fpl$dcheck1) refers to retnan.o(x$fpl$retnan) for __fpl_return_NaN
    ddiv.o(x$fpl$drdiv) refers (Special) to usenofp.o(x$fpl$usenofp) for __I$use$fp
    ddiv.o(x$fpl$drdiv) refers to ddiv.o(x$fpl$ddiv) for ddiv_entry
    ddiv.o(x$fpl$ddiv) refers (Special) to usenofp.o(x$fpl$usenofp) for __I$use$fp
    ddiv.o(x$fpl$ddiv) refers to dretinf.o(x$fpl$dretinf) for __fpl_dretinf
    ddiv.o(x$fpl$ddiv) refers to dnaninf.o(x$fpl$dnaninf) for __fpl_dnaninf
    retnan.o(x$fpl$retnan) refers (Special) to usenofp.o(x$fpl$usenofp) for __I$use$fp
    retnan.o(x$fpl$retnan) refers to trapv.o(x$fpl$trapveneer) for __fpl_cmpreturn
    trapv.o(x$fpl$trapveneer) refers (Special) to usenofp.o(x$fpl$usenofp) for __I$use$fp


==============================================================================

Removing Unused input sections from the image.

    Removing main.o(.rev16_text), (4 bytes).
    Removing main.o(.revsh_text), (4 bytes).
    Removing main.o(.rrx_text), (6 bytes).
    Removing usart.o(.rev16_text), (4 bytes).
    Removing usart.o(.revsh_text), (4 bytes).
    Removing usart.o(.rrx_text), (6 bytes).
    Removing sys.o(.rev16_text), (4 bytes).
    Removing sys.o(.revsh_text), (4 bytes).
    Removing sys.o(.rrx_text), (6 bytes).
    Removing sys.o(.emb_text), (6 bytes).
    Removing sys.o(i.Ex_NVIC_Config), (180 bytes).
    Removing sys.o(i.INTX_DISABLE), (4 bytes).
    Removing sys.o(i.INTX_ENABLE), (4 bytes).
    Removing sys.o(i.Sys_Soft_Reset), (16 bytes).
    Removing sys.o(i.Sys_Standby), (76 bytes).
    Removing sys.o(i.WFI_SET), (4 bytes).
    Removing delay.o(.rev16_text), (4 bytes).
    Removing delay.o(.revsh_text), (4 bytes).
    Removing delay.o(.rrx_text), (6 bytes).
    Removing wayz.o(.rev16_text), (4 bytes).
    Removing wayz.o(.revsh_text), (4 bytes).
    Removing wayz.o(.rrx_text), (6 bytes).
    Removing wayz.o(i.atk_8266_send_data), (104 bytes).
    Removing wayz.o(i.postTest), (532 bytes).
    Removing wayz.o(i.postTestHttps), (412 bytes).
    Removing cjson.o(i.buffer_skip_whitespace), (58 bytes).
    Removing cjson.o(i.cJSON_AddItemReferenceToArray), (32 bytes).
    Removing cjson.o(i.cJSON_AddItemReferenceToObject), (40 bytes).
    Removing cjson.o(i.cJSON_Compare), (330 bytes).
    Removing cjson.o(i.cJSON_CreateDoubleArray), (98 bytes).
    Removing cjson.o(i.cJSON_CreateFalse), (24 bytes).
    Removing cjson.o(i.cJSON_CreateFloatArray), (120 bytes).
    Removing cjson.o(i.cJSON_CreateIntArray), (110 bytes).
    Removing cjson.o(i.cJSON_CreateNull), (24 bytes).
    Removing cjson.o(i.cJSON_CreateRaw), (52 bytes).
    Removing cjson.o(i.cJSON_CreateStringArray), (86 bytes).
    Removing cjson.o(i.cJSON_CreateTrue), (24 bytes).
    Removing cjson.o(i.cJSON_DeleteItemFromArray), (22 bytes).
    Removing cjson.o(i.cJSON_DeleteItemFromObject), (22 bytes).
    Removing cjson.o(i.cJSON_DeleteItemFromObjectCaseSensitive), (22 bytes).
    Removing cjson.o(i.cJSON_DetachItemFromArray), (34 bytes).
    Removing cjson.o(i.cJSON_DetachItemFromObject), (26 bytes).
    Removing cjson.o(i.cJSON_DetachItemFromObjectCaseSensitive), (26 bytes).
    Removing cjson.o(i.cJSON_DetachItemViaPointer), (50 bytes).
    Removing cjson.o(i.cJSON_Duplicate), (184 bytes).
    Removing cjson.o(i.cJSON_GetArrayItem), (24 bytes).
    Removing cjson.o(i.cJSON_GetArraySize), (18 bytes).
    Removing cjson.o(i.cJSON_GetErrorPtr), (16 bytes).
    Removing cjson.o(i.cJSON_GetObjectItem), (18 bytes).
    Removing cjson.o(i.cJSON_GetObjectItemCaseSensitive), (18 bytes).
    Removing cjson.o(i.cJSON_HasObjectItem), (24 bytes).
    Removing cjson.o(i.cJSON_InitHooks), (100 bytes).
    Removing cjson.o(i.cJSON_InsertItemInArray), (68 bytes).
    Removing cjson.o(i.cJSON_IsArray), (22 bytes).
    Removing cjson.o(i.cJSON_IsBool), (24 bytes).
    Removing cjson.o(i.cJSON_IsFalse), (20 bytes).
    Removing cjson.o(i.cJSON_IsInvalid), (20 bytes).
    Removing cjson.o(i.cJSON_IsNull), (22 bytes).
    Removing cjson.o(i.cJSON_IsNumber), (22 bytes).
    Removing cjson.o(i.cJSON_IsObject), (22 bytes).
    Removing cjson.o(i.cJSON_IsRaw), (22 bytes).
    Removing cjson.o(i.cJSON_IsString), (22 bytes).
    Removing cjson.o(i.cJSON_IsTrue), (22 bytes).
    Removing cjson.o(i.cJSON_Minify), (186 bytes).
    Removing cjson.o(i.cJSON_Parse), (16 bytes).
    Removing cjson.o(i.cJSON_ParseWithOpts), (208 bytes).
    Removing cjson.o(i.cJSON_PrintBuffered), (88 bytes).
    Removing cjson.o(i.cJSON_PrintPreallocated), (68 bytes).
    Removing cjson.o(i.cJSON_ReplaceItemInArray), (42 bytes).
    Removing cjson.o(i.cJSON_ReplaceItemInObject), (22 bytes).
    Removing cjson.o(i.cJSON_ReplaceItemInObjectCaseSensitive), (22 bytes).
    Removing cjson.o(i.cJSON_ReplaceItemViaPointer), (72 bytes).
    Removing cjson.o(i.cJSON_SetNumberHelper), (112 bytes).
    Removing cjson.o(i.cJSON_Version), (40 bytes).
    Removing cjson.o(i.cJSON_free), (20 bytes).
    Removing cjson.o(i.cJSON_malloc), (20 bytes).
    Removing cjson.o(i.case_insensitive_strcmp), (72 bytes).
    Removing cjson.o(i.create_reference), (52 bytes).
    Removing cjson.o(i.get_array_item), (30 bytes).
    Removing cjson.o(i.get_object_item), (68 bytes).
    Removing cjson.o(i.parse_array), (244 bytes).
    Removing cjson.o(i.parse_hex4), (90 bytes).
    Removing cjson.o(i.parse_number), (340 bytes).
    Removing cjson.o(i.parse_object), (314 bytes).
    Removing cjson.o(i.parse_string), (396 bytes).
    Removing cjson.o(i.parse_value), (316 bytes).
    Removing cjson.o(i.replace_item_in_object), (88 bytes).
    Removing cjson.o(i.utf16_literal_to_utf8), (300 bytes).
    Removing cjson.o(.bss), (15 bytes).
    Removing lcd.o(.rev16_text), (4 bytes).
    Removing lcd.o(.revsh_text), (4 bytes).
    Removing lcd.o(.rrx_text), (6 bytes).
    Removing lcd.o(i.LCD_BGR2RGB), (26 bytes).
    Removing lcd.o(i.LCD_Color_Fill), (124 bytes).
    Removing lcd.o(i.LCD_DisplayOff), (92 bytes).
    Removing lcd.o(i.LCD_DisplayOn), (92 bytes).
    Removing lcd.o(i.LCD_DrawRectangle), (64 bytes).
    Removing lcd.o(i.LCD_Draw_Circle), (152 bytes).
    Removing lcd.o(i.LCD_Fill), (112 bytes).
    Removing lcd.o(i.LCD_ReadPoint), (204 bytes).
    Removing lcd.o(i.LCD_ReadReg), (22 bytes).
    Removing lcd.o(i.LCD_Set_Window), (404 bytes).
    Removing lcd.o(i.LCD_ShowxNum), (190 bytes).
    Removing lcd.o(i.LCD_WriteRAM), (12 bytes).
    Removing lcd.o(i.opt_delay), (14 bytes).
    Removing ltdc.o(.rev16_text), (4 bytes).
    Removing ltdc.o(.revsh_text), (4 bytes).
    Removing ltdc.o(.rrx_text), (6 bytes).
    Removing ltdc.o(i.LTDC_Color_Fill), (340 bytes).
    Removing ltdc.o(i.LTDC_Read_Point), (80 bytes).
    Removing led.o(.rev16_text), (4 bytes).
    Removing led.o(.revsh_text), (4 bytes).
    Removing led.o(.rrx_text), (6 bytes).
    Removing led.o(i.LED_Init), (64 bytes).
    Removing usart3.o(.rev16_text), (4 bytes).
    Removing usart3.o(.revsh_text), (4 bytes).
    Removing usart3.o(.rrx_text), (6 bytes).
    Removing timer.o(.rev16_text), (4 bytes).
    Removing timer.o(.revsh_text), (4 bytes).
    Removing timer.o(.rrx_text), (6 bytes).
    Removing timer.o(i.TIM3_Int_Init), (80 bytes).
    Removing timer.o(i.TIM3_PWM_Init), (160 bytes).
    Removing timer.o(i.TIM5_CH1_Cap_Init), (200 bytes).
    Removing timer.o(i.TIM9_CH2_PWM_Init), (136 bytes).
    Removing sdram.o(.rev16_text), (4 bytes).
    Removing sdram.o(.revsh_text), (4 bytes).
    Removing sdram.o(.rrx_text), (6 bytes).
    Removing sdram.o(i.FMC_SDRAM_ReadBuffer), (22 bytes).
    Removing sdram.o(i.FMC_SDRAM_WriteBuffer), (24 bytes).

129 unused section(s) (total 9235 bytes) removed from the image.

==============================================================================

Image Symbol Table

    Local Symbols

    Symbol Name                              Value     Ov Type        Size  Object(Section)

    ../clib/angel/boardlib.s                 0x00000000   Number         0  boardinit3.o ABSOLUTE
    ../clib/angel/boardlib.s                 0x00000000   Number         0  boardinit2.o ABSOLUTE
    ../clib/angel/boardlib.s                 0x00000000   Number         0  boardinit1.o ABSOLUTE
    ../clib/angel/boardlib.s                 0x00000000   Number         0  boardshut.o ABSOLUTE
    ../clib/angel/handlers.s                 0x00000000   Number         0  __scatter_zi.o ABSOLUTE
    ../clib/angel/handlers.s                 0x00000000   Number         0  __scatter_copy.o ABSOLUTE
    ../clib/angel/kernel.s                   0x00000000   Number         0  rtexit.o ABSOLUTE
    ../clib/angel/kernel.s                   0x00000000   Number         0  rtexit2.o ABSOLUTE
    ../clib/angel/kernel.s                   0x00000000   Number         0  __rtentry.o ABSOLUTE
    ../clib/angel/kernel.s                   0x00000000   Number         0  __rtentry4.o ABSOLUTE
    ../clib/angel/kernel.s                   0x00000000   Number         0  __rtentry2.o ABSOLUTE
    ../clib/angel/rt.s                       0x00000000   Number         0  rt_heap_descriptor.o ABSOLUTE
    ../clib/angel/rt.s                       0x00000000   Number         0  rt_locale.o ABSOLUTE
    ../clib/angel/rt.s                       0x00000000   Number         0  rt_locale_intlibspace.o ABSOLUTE
    ../clib/angel/rt.s                       0x00000000   Number         0  rt_heap_descriptor_intlibspace.o ABSOLUTE
    ../clib/angel/rt.s                       0x00000000   Number         0  rt_errno_addr.o ABSOLUTE
    ../clib/angel/rt.s                       0x00000000   Number         0  rt_errno_addr_intlibspace.o ABSOLUTE
    ../clib/angel/rt.s                       0x00000000   Number         0  rt_raise.o ABSOLUTE
    ../clib/angel/rt.s                       0x00000000   Number         0  rt_ctype_table.o ABSOLUTE
    ../clib/angel/scatter.s                  0x00000000   Number         0  __scatter.o ABSOLUTE
    ../clib/angel/startup.s                  0x00000000   Number         0  __main.o ABSOLUTE
    ../clib/angel/sys.s                      0x00000000   Number         0  sys_stackheap_outer.o ABSOLUTE
    ../clib/angel/sys.s                      0x00000000   Number         0  mutex_dummy.o ABSOLUTE
    ../clib/angel/sys.s                      0x00000000   Number         0  use_no_semi_2.o ABSOLUTE
    ../clib/angel/sys.s                      0x00000000   Number         0  indicate_semi.o ABSOLUTE
    ../clib/angel/sys.s                      0x00000000   Number         0  use_no_semi.o ABSOLUTE
    ../clib/angel/sys.s                      0x00000000   Number         0  libspace.o ABSOLUTE
    ../clib/angel/sysapp.c                   0x00000000   Number         0  sys_command.o ABSOLUTE
    ../clib/armsys.c                         0x00000000   Number         0  _get_argv_nomalloc.o ABSOLUTE
    ../clib/armsys.c                         0x00000000   Number         0  no_argv.o ABSOLUTE
    ../clib/armsys.c                         0x00000000   Number         0  _get_argv.o ABSOLUTE
    ../clib/armsys.c                         0x00000000   Number         0  argv_veneer.o ABSOLUTE
    ../clib/armsys.c                         0x00000000   Number         0  argv_veneer.o ABSOLUTE
    ../clib/bigflt.c                         0x00000000   Number         0  bigflt0.o ABSOLUTE
    ../clib/btod.s                           0x00000000   Number         0  btod.o ABSOLUTE
    ../clib/ctype.c                          0x00000000   Number         0  tolower.o ABSOLUTE
    ../clib/ctype.c                          0x00000000   Number         0  isspace.o ABSOLUTE
    ../clib/fenv.c                           0x00000000   Number         0  _rserrno.o ABSOLUTE
    ../clib/heap1.c                          0x00000000   Number         0  h1_final_mt.o ABSOLUTE
    ../clib/heap1.c                          0x00000000   Number         0  h1_alloc_mt.o ABSOLUTE
    ../clib/heap1.c                          0x00000000   Number         0  h1_alloc.o ABSOLUTE
    ../clib/heap1.c                          0x00000000   Number         0  h1_free.o ABSOLUTE
    ../clib/heap1.c                          0x00000000   Number         0  h1_final.o ABSOLUTE
    ../clib/heap1.c                          0x00000000   Number         0  h1_realloc.o ABSOLUTE
    ../clib/heap1.c                          0x00000000   Number         0  h1_init_mt.o ABSOLUTE
    ../clib/heap1.c                          0x00000000   Number         0  h1_init.o ABSOLUTE
    ../clib/heap1.c                          0x00000000   Number         0  h1_extend.o ABSOLUTE
    ../clib/heap1.c                          0x00000000   Number         0  h1_extend_mt.o ABSOLUTE
    ../clib/heap1.c                          0x00000000   Number         0  h1_realloc_mt.o ABSOLUTE
    ../clib/heap1.c                          0x00000000   Number         0  h1_free_mt.o ABSOLUTE
    ../clib/heap2.c                          0x00000000   Number         0  heap2.o ABSOLUTE
    ../clib/heap2.c                          0x00000000   Number         0  fdtree.o ABSOLUTE
    ../clib/heap2.c                          0x00000000   Number         0  heap2mt.o ABSOLUTE
    ../clib/heapalloc.c                      0x00000000   Number         0  init_alloc.o ABSOLUTE
    ../clib/heapalloc.c                      0x00000000   Number         0  heapstubs.o ABSOLUTE
    ../clib/heapalloc.c                      0x00000000   Number         0  term_alloc.o ABSOLUTE
    ../clib/heapalloc.c                      0x00000000   Number         0  maybetermalloc1.o ABSOLUTE
    ../clib/heapalloc.c                      0x00000000   Number         0  realloc.o ABSOLUTE
    ../clib/heapalloc.c                      0x00000000   Number         0  free.o ABSOLUTE
    ../clib/heapalloc.c                      0x00000000   Number         0  maybetermalloc2.o ABSOLUTE
    ../clib/heapalloc.c                      0x00000000   Number         0  maybetermalloc1.o ABSOLUTE
    ../clib/heapalloc.c                      0x00000000   Number         0  hrguard.o ABSOLUTE
    ../clib/heapalloc.c                      0x00000000   Number         0  maybetermalloc2.o ABSOLUTE
    ../clib/heapalloc.c                      0x00000000   Number         0  hguard.o ABSOLUTE
    ../clib/heapalloc.c                      0x00000000   Number         0  malloc.o ABSOLUTE
    ../clib/heapaux.c                        0x00000000   Number         0  heapauxi.o ABSOLUTE
    ../clib/heapaux.c                        0x00000000   Number         0  heapauxa.o ABSOLUTE
    ../clib/libinit.s                        0x00000000   Number         0  libshutdown.o ABSOLUTE
    ../clib/libinit.s                        0x00000000   Number         0  libshutdown2.o ABSOLUTE
    ../clib/libinit.s                        0x00000000   Number         0  libinit.o ABSOLUTE
    ../clib/libinit.s                        0x00000000   Number         0  libinit2.o ABSOLUTE
    ../clib/locale.c                         0x00000000   Number         0  _wcrtomb.o ABSOLUTE
    ../clib/locale.c                         0x00000000   Number         0  _lconv.o ABSOLUTE
    ../clib/locale.c                         0x00000000   Number         0  localeconv.o ABSOLUTE
    ../clib/locale.s                         0x00000000   Number         0  lc_ctype_c.o ABSOLUTE
    ../clib/locale.s                         0x00000000   Number         0  lc_monetary_c.o ABSOLUTE
    ../clib/locale.s                         0x00000000   Number         0  lc_numeric_c.o ABSOLUTE
    ../clib/longlong.s                       0x00000000   Number         0  llshl.o ABSOLUTE
    ../clib/longlong.s                       0x00000000   Number         0  lludiv10.o ABSOLUTE
    ../clib/memcpset.s                       0x00000000   Number         0  strcmpv7m.o ABSOLUTE
    ../clib/memcpset.s                       0x00000000   Number         0  rt_memclr_w.o ABSOLUTE
    ../clib/memcpset.s                       0x00000000   Number         0  rt_memclr.o ABSOLUTE
    ../clib/memcpset.s                       0x00000000   Number         0  rt_memcpy_w.o ABSOLUTE
    ../clib/memcpset.s                       0x00000000   Number         0  rt_memcpy_v6.o ABSOLUTE
    ../clib/misc.s                           0x00000000   Number         0  printf_stubs.o ABSOLUTE
    ../clib/printf.c                         0x00000000   Number         0  _printf_hex_ll.o ABSOLUTE
    ../clib/printf.c                         0x00000000   Number         0  _printf_dec.o ABSOLUTE
    ../clib/printf.c                         0x00000000   Number         0  _printf_str.o ABSOLUTE
    ../clib/printf.c                         0x00000000   Number         0  _printf_pad.o ABSOLUTE
    ../clib/printf.c                         0x00000000   Number         0  __printf.o ABSOLUTE
    ../clib/printf.c                         0x00000000   Number         0  noretval__2sprintf.o ABSOLUTE
    ../clib/printf.c                         0x00000000   Number         0  noretval__2printf.o ABSOLUTE
    ../clib/printf.c                         0x00000000   Number         0  __2sprintf.o ABSOLUTE
    ../clib/printf.c                         0x00000000   Number         0  __2printf.o ABSOLUTE
    ../clib/printf.c                         0x00000000   Number         0  vsnprintf.o ABSOLUTE
    ../clib/printf.c                         0x00000000   Number         0  _printf_fp_hex.o ABSOLUTE
    ../clib/printf.c                         0x00000000   Number         0  vsprintf.o ABSOLUTE
    ../clib/printf.c                         0x00000000   Number         0  _printf_fp_infnan.o ABSOLUTE
    ../clib/printf.c                         0x00000000   Number         0  vprintf.o ABSOLUTE
    ../clib/printf.c                         0x00000000   Number         0  __printf_nopercent.o ABSOLUTE
    ../clib/printf.c                         0x00000000   Number         0  _printf_oct_int.o ABSOLUTE
    ../clib/printf.c                         0x00000000   Number         0  _printf_oct_ll.o ABSOLUTE
    ../clib/printf.c                         0x00000000   Number         0  _printf_longlong_dec.o ABSOLUTE
    ../clib/printf.c                         0x00000000   Number         0  _printf_wctomb.o ABSOLUTE
    ../clib/printf.c                         0x00000000   Number         0  _printf_wchar.o ABSOLUTE
    ../clib/printf.c                         0x00000000   Number         0  _printf_hex_ptr.o ABSOLUTE
    ../clib/printf.c                         0x00000000   Number         0  _printf_hex_int_ptr.o ABSOLUTE
    ../clib/printf.c                         0x00000000   Number         0  _printf_hex_ll_ptr.o ABSOLUTE
    ../clib/printf.c                         0x00000000   Number         0  _printf_char_file.o ABSOLUTE
    ../clib/printf.c                         0x00000000   Number         0  _printf_char.o ABSOLUTE
    ../clib/printf.c                         0x00000000   Number         0  _snputc.o ABSOLUTE
    ../clib/printf.c                         0x00000000   Number         0  _printf_oct_int_ll.o ABSOLUTE
    ../clib/printf.c                         0x00000000   Number         0  _sputc.o ABSOLUTE
    ../clib/printf.c                         0x00000000   Number         0  __printf_flags.o ABSOLUTE
    ../clib/printf.c                         0x00000000   Number         0  __printf_ss.o ABSOLUTE
    ../clib/printf.c                         0x00000000   Number         0  __printf_flags_ss.o ABSOLUTE
    ../clib/printf.c                         0x00000000   Number         0  __printf_wp.o ABSOLUTE
    ../clib/printf.c                         0x00000000   Number         0  _printf_char_common.o ABSOLUTE
    ../clib/printf.c                         0x00000000   Number         0  __printf_flags_wp.o ABSOLUTE
    ../clib/printf.c                         0x00000000   Number         0  __printf_ss_wp.o ABSOLUTE
    ../clib/printf.c                         0x00000000   Number         0  __printf_flags_ss_wp.o ABSOLUTE
    ../clib/printf.c                         0x00000000   Number         0  _printf_fp_dec.o ABSOLUTE
    ../clib/printf.c                         0x00000000   Number         0  _printf_charcount.o ABSOLUTE
    ../clib/printf.c                         0x00000000   Number         0  _printf_intcommon.o ABSOLUTE
    ../clib/printf.c                         0x00000000   Number         0  _printf_truncate.o ABSOLUTE
    ../clib/printf.c                         0x00000000   Number         0  _printf_hex_int_ll.o ABSOLUTE
    ../clib/printf.c                         0x00000000   Number         0  _printf_hex_int.o ABSOLUTE
    ../clib/printf.c                         0x00000000   Number         0  _printf_hex_int_ll_ptr.o ABSOLUTE
    ../clib/printf_percent.s                 0x00000000   Number         0  _printf_o.o ABSOLUTE
    ../clib/printf_percent.s                 0x00000000   Number         0  _printf_lld.o ABSOLUTE
    ../clib/printf_percent.s                 0x00000000   Number         0  _printf_llu.o ABSOLUTE
    ../clib/printf_percent.s                 0x00000000   Number         0  _printf_ll.o ABSOLUTE
    ../clib/printf_percent.s                 0x00000000   Number         0  _printf_l.o ABSOLUTE
    ../clib/printf_percent.s                 0x00000000   Number         0  _printf_lc.o ABSOLUTE
    ../clib/printf_percent.s                 0x00000000   Number         0  _printf_ls.o ABSOLUTE
    ../clib/printf_percent.s                 0x00000000   Number         0  _printf_llo.o ABSOLUTE
    ../clib/printf_percent.s                 0x00000000   Number         0  _printf_llx.o ABSOLUTE
    ../clib/printf_percent.s                 0x00000000   Number         0  _printf_u.o ABSOLUTE
    ../clib/printf_percent.s                 0x00000000   Number         0  _printf_f.o ABSOLUTE
    ../clib/printf_percent.s                 0x00000000   Number         0  _printf_c.o ABSOLUTE
    ../clib/printf_percent.s                 0x00000000   Number         0  _printf_e.o ABSOLUTE
    ../clib/printf_percent.s                 0x00000000   Number         0  _printf_p.o ABSOLUTE
    ../clib/printf_percent.s                 0x00000000   Number         0  _printf_s.o ABSOLUTE
    ../clib/printf_percent.s                 0x00000000   Number         0  _printf_a.o ABSOLUTE
    ../clib/printf_percent.s                 0x00000000   Number         0  _printf_x.o ABSOLUTE
    ../clib/printf_percent.s                 0x00000000   Number         0  _printf_n.o ABSOLUTE
    ../clib/printf_percent.s                 0x00000000   Number         0  _printf_i.o ABSOLUTE
    ../clib/printf_percent.s                 0x00000000   Number         0  _printf_d.o ABSOLUTE
    ../clib/printf_percent.s                 0x00000000   Number         0  _printf_g.o ABSOLUTE
    ../clib/printf_percent.s                 0x00000000   Number         0  _printf_percent.o ABSOLUTE
    ../clib/printf_percent.s                 0x00000000   Number         0  _printf_percent_end.o ABSOLUTE
    ../clib/printf_percent.s                 0x00000000   Number         0  _printf_lli.o ABSOLUTE
    ../clib/scanf.c                          0x00000000   Number         0  scanf_infnan.o ABSOLUTE
    ../clib/scanf.c                          0x00000000   Number         0  scanf_hexfp.o ABSOLUTE
    ../clib/scanf.c                          0x00000000   Number         0  _scanf.o ABSOLUTE
    ../clib/scanf.c                          0x00000000   Number         0  strtod.o ABSOLUTE
    ../clib/scanf.c                          0x00000000   Number         0  _sgetc.o ABSOLUTE
    ../clib/scanf.c                          0x00000000   Number         0  scanf_char.o ABSOLUTE
    ../clib/scanf.c                          0x00000000   Number         0  scanf_fp.o ABSOLUTE
    ../clib/scanf.c                          0x00000000   Number         0  __0sscanf.o ABSOLUTE
    ../clib/scanf.c                          0x00000000   Number         0  _chval.o ABSOLUTE
    ../clib/signal.c                         0x00000000   Number         0  defsig_rtmem_outer.o ABSOLUTE
    ../clib/signal.c                         0x00000000   Number         0  defsig_rtmem_inner.o ABSOLUTE
    ../clib/signal.c                         0x00000000   Number         0  defsig_stak_inner.o ABSOLUTE
    ../clib/signal.c                         0x00000000   Number         0  defsig_cppl_inner.o ABSOLUTE
    ../clib/signal.c                         0x00000000   Number         0  defsig_segv_inner.o ABSOLUTE
    ../clib/signal.c                         0x00000000   Number         0  defsig_rtmem_formal.o ABSOLUTE
    ../clib/signal.c                         0x00000000   Number         0  defsig_rtred_inner.o ABSOLUTE
    ../clib/signal.c                         0x00000000   Number         0  defsig_other.o ABSOLUTE
    ../clib/signal.c                         0x00000000   Number         0  defsig_pvfn_inner.o ABSOLUTE
    ../clib/signal.c                         0x00000000   Number         0  defsig_fpe_inner.o ABSOLUTE
    ../clib/signal.c                         0x00000000   Number         0  defsig_abrt_inner.o ABSOLUTE
    ../clib/signal.c                         0x00000000   Number         0  defsig_general.o ABSOLUTE
    ../clib/signal.c                         0x00000000   Number         0  __raise.o ABSOLUTE
    ../clib/signal.c                         0x00000000   Number         0  defsig_exit.o ABSOLUTE
    ../clib/signal.s                         0x00000000   Number         0  defsig.o ABSOLUTE
    ../clib/stdio.c                          0x00000000   Number         0  ferror_locked.o ABSOLUTE
    ../clib/stdio.c                          0x00000000   Number         0  ferror.o ABSOLUTE
    ../clib/stdlib.c                         0x00000000   Number         0  exit.o ABSOLUTE
    ../clib/string.c                         0x00000000   Number         0  strlen.o ABSOLUTE
    ../clib/string.c                         0x00000000   Number         0  strstr.o ABSOLUTE
    ../clib/string.c                         0x00000000   Number         0  strcpy.o ABSOLUTE
    ../clib/string.c                         0x00000000   Number         0  strncmp.o ABSOLUTE
    ../fplib/d2f.s                           0x00000000   Number         0  d2f.o ABSOLUTE
    ../fplib/daddsub.s                       0x00000000   Number         0  daddsub_clz.o ABSOLUTE
    ../fplib/dcheck1.s                       0x00000000   Number         0  dcheck1.o ABSOLUTE
    ../fplib/dcmpi.s                         0x00000000   Number         0  dcmpi.o ABSOLUTE
    ../fplib/ddiv.s                          0x00000000   Number         0  ddiv.o ABSOLUTE
    ../fplib/deqf.s                          0x00000000   Number         0  deqf.o ABSOLUTE
    ../fplib/dfix.s                          0x00000000   Number         0  dfix.o ABSOLUTE
    ../fplib/dfixu.s                         0x00000000   Number         0  dfixu.o ABSOLUTE
    ../fplib/dflt.s                          0x00000000   Number         0  dflt_clz.o ABSOLUTE
    ../fplib/dfltll.s                        0x00000000   Number         0  dfltll_clz.o ABSOLUTE
    ../fplib/dleqf.s                         0x00000000   Number         0  dleqf.o ABSOLUTE
    ../fplib/dmul.s                          0x00000000   Number         0  dmul.o ABSOLUTE
    ../fplib/dnaninf.s                       0x00000000   Number         0  dnaninf.o ABSOLUTE
    ../fplib/dretinf.s                       0x00000000   Number         0  dretinf.o ABSOLUTE
    ../fplib/drleqf.s                        0x00000000   Number         0  drleqf.o ABSOLUTE
    ../fplib/f2d.s                           0x00000000   Number         0  f2d.o ABSOLUTE
    ../fplib/fnaninf.s                       0x00000000   Number         0  fnaninf.o ABSOLUTE
    ../fplib/fpconst.s                       0x00000000   Number         0  fpconst.o ABSOLUTE
    ../fplib/fpinit.s                        0x00000000   Number         0  fpinit.o ABSOLUTE
    ../fplib/fretinf.s                       0x00000000   Number         0  fretinf.o ABSOLUTE
    ../fplib/istatus.s                       0x00000000   Number         0  istatus.o ABSOLUTE
    ../fplib/printf1.s                       0x00000000   Number         0  printf1.o ABSOLUTE
    ../fplib/printf2.s                       0x00000000   Number         0  printf2.o ABSOLUTE
    ../fplib/printf2a.s                      0x00000000   Number         0  printf2a.o ABSOLUTE
    ../fplib/printf2b.s                      0x00000000   Number         0  printf2b.o ABSOLUTE
    ../fplib/retnan.s                        0x00000000   Number         0  retnan.o ABSOLUTE
    ../fplib/scalbn.s                        0x00000000   Number         0  scalbn.o ABSOLUTE
    ../fplib/scanf1.s                        0x00000000   Number         0  scanf1.o ABSOLUTE
    ../fplib/scanf2.s                        0x00000000   Number         0  scanf2.o ABSOLUTE
    ../fplib/scanf2a.s                       0x00000000   Number         0  scanf2a.o ABSOLUTE
    ../fplib/scanf2b.s                       0x00000000   Number         0  scanf2b.o ABSOLUTE
    ../fplib/trapv.s                         0x00000000   Number         0  trapv.o ABSOLUTE
    ../fplib/usenofp.s                       0x00000000   Number         0  usenofp.o ABSOLUTE
    ../mathlib/dunder.c                      0x00000000   Number         0  dunder.o ABSOLUTE
    ../mathlib/fpclassify.c                  0x00000000   Number         0  fpclassify.o ABSOLUTE
    ../mathlib/frexp.c                       0x00000000   Number         0  frexp.o ABSOLUTE
    ../mathlib/ldexp.c                       0x00000000   Number         0  ldexp.o ABSOLUTE
    ../mathlib/ldexp.c                       0x00000000   Number         0  ldexp_x.o ABSOLUTE
    ../mathlib/narrow.c                      0x00000000   Number         0  narrow.o ABSOLUTE
    ../mathlib/qnan.c                        0x00000000   Number         0  qnan.o ABSOLUTE
    ../mathlib/strtod.c                      0x00000000   Number         0  strtod.o ABSOLUTE
    ..\HARDWARE\LCD\lcd.c                    0x00000000   Number         0  lcd.o ABSOLUTE
    ..\HARDWARE\LCD\ltdc.c                   0x00000000   Number         0  ltdc.o ABSOLUTE
    ..\HARDWARE\LED\led.c                    0x00000000   Number         0  led.o ABSOLUTE
    ..\HARDWARE\SDRAM\sdram.c                0x00000000   Number         0  sdram.o ABSOLUTE
    ..\HARDWARE\TIMER\timer.c                0x00000000   Number         0  timer.o ABSOLUTE
    ..\HARDWARE\USART3\usart3.c              0x00000000   Number         0  usart3.o ABSOLUTE
    ..\SYSTEM\delay\delay.c                  0x00000000   Number         0  delay.o ABSOLUTE
    ..\SYSTEM\sys\sys.c                      0x00000000   Number         0  sys.o ABSOLUTE
    ..\SYSTEM\usart\usart.c                  0x00000000   Number         0  usart.o ABSOLUTE
    ..\WAYZ\cJSON.c                          0x00000000   Number         0  cjson.o ABSOLUTE
    ..\WAYZ\wayz.c                           0x00000000   Number         0  wayz.o ABSOLUTE
    ..\WAYZ\zlog.c                           0x00000000   Number         0  zlog.o ABSOLUTE
    ..\\HARDWARE\\LCD\\lcd.c                 0x00000000   Number         0  lcd.o ABSOLUTE
    ..\\HARDWARE\\LCD\\ltdc.c                0x00000000   Number         0  ltdc.o ABSOLUTE
    ..\\HARDWARE\\LED\\led.c                 0x00000000   Number         0  led.o ABSOLUTE
    ..\\HARDWARE\\SDRAM\\sdram.c             0x00000000   Number         0  sdram.o ABSOLUTE
    ..\\HARDWARE\\TIMER\\timer.c             0x00000000   Number         0  timer.o ABSOLUTE
    ..\\HARDWARE\\USART3\\usart3.c           0x00000000   Number         0  usart3.o ABSOLUTE
    ..\\SYSTEM\\delay\\delay.c               0x00000000   Number         0  delay.o ABSOLUTE
    ..\\SYSTEM\\sys\\sys.c                   0x00000000   Number         0  sys.o ABSOLUTE
    ..\\SYSTEM\\usart\\usart.c               0x00000000   Number         0  usart.o ABSOLUTE
    ..\\WAYZ\\wayz.c                         0x00000000   Number         0  wayz.o ABSOLUTE
    dc.s                                     0x00000000   Number         0  dc.o ABSOLUTE
    main.c                                   0x00000000   Number         0  main.o ABSOLUTE
    main.c                                   0x00000000   Number         0  main.o ABSOLUTE
    startup_stm32f429xx.s                    0x00000000   Number         0  startup_stm32f429xx.o ABSOLUTE
    RESET                                    0x08000000   Section      428  startup_stm32f429xx.o(RESET)
    !!!main                                  0x080001ac   Section        8  __main.o(!!!main)
    !!!scatter                               0x080001b4   Section       52  __scatter.o(!!!scatter)
    !!handler_copy                           0x080001e8   Section       26  __scatter_copy.o(!!handler_copy)
    !!handler_zi                             0x08000204   Section       28  __scatter_zi.o(!!handler_zi)
    .ARM.Collect$$_printf_percent$$00000000  0x08000220   Section        0  _printf_percent.o(.ARM.Collect$$_printf_percent$$00000000)
    .ARM.Collect$$_printf_percent$$00000001  0x08000220   Section        6  _printf_n.o(.ARM.Collect$$_printf_percent$$00000001)
    .ARM.Collect$$_printf_percent$$00000002  0x08000226   Section        6  _printf_p.o(.ARM.Collect$$_printf_percent$$00000002)
    .ARM.Collect$$_printf_percent$$00000003  0x0800022c   Section        6  _printf_f.o(.ARM.Collect$$_printf_percent$$00000003)
    .ARM.Collect$$_printf_percent$$00000004  0x08000232   Section        6  _printf_e.o(.ARM.Collect$$_printf_percent$$00000004)
    .ARM.Collect$$_printf_percent$$00000005  0x08000238   Section        6  _printf_g.o(.ARM.Collect$$_printf_percent$$00000005)
    .ARM.Collect$$_printf_percent$$00000006  0x0800023e   Section        6  _printf_a.o(.ARM.Collect$$_printf_percent$$00000006)
    .ARM.Collect$$_printf_percent$$00000007  0x08000244   Section       10  _printf_ll.o(.ARM.Collect$$_printf_percent$$00000007)
    .ARM.Collect$$_printf_percent$$00000008  0x0800024e   Section        6  _printf_i.o(.ARM.Collect$$_printf_percent$$00000008)
    .ARM.Collect$$_printf_percent$$00000009  0x08000254   Section        6  _printf_d.o(.ARM.Collect$$_printf_percent$$00000009)
    .ARM.Collect$$_printf_percent$$0000000A  0x0800025a   Section        6  _printf_u.o(.ARM.Collect$$_printf_percent$$0000000A)
    .ARM.Collect$$_printf_percent$$0000000B  0x08000260   Section        6  _printf_o.o(.ARM.Collect$$_printf_percent$$0000000B)
    .ARM.Collect$$_printf_percent$$0000000C  0x08000266   Section        6  _printf_x.o(.ARM.Collect$$_printf_percent$$0000000C)
    .ARM.Collect$$_printf_percent$$0000000D  0x0800026c   Section        6  _printf_lli.o(.ARM.Collect$$_printf_percent$$0000000D)
    .ARM.Collect$$_printf_percent$$0000000E  0x08000272   Section        6  _printf_lld.o(.ARM.Collect$$_printf_percent$$0000000E)
    .ARM.Collect$$_printf_percent$$0000000F  0x08000278   Section        6  _printf_llu.o(.ARM.Collect$$_printf_percent$$0000000F)
    .ARM.Collect$$_printf_percent$$00000010  0x0800027e   Section        6  _printf_llo.o(.ARM.Collect$$_printf_percent$$00000010)
    .ARM.Collect$$_printf_percent$$00000011  0x08000284   Section        6  _printf_llx.o(.ARM.Collect$$_printf_percent$$00000011)
    .ARM.Collect$$_printf_percent$$00000012  0x0800028a   Section       10  _printf_l.o(.ARM.Collect$$_printf_percent$$00000012)
    .ARM.Collect$$_printf_percent$$00000013  0x08000294   Section        6  _printf_c.o(.ARM.Collect$$_printf_percent$$00000013)
    .ARM.Collect$$_printf_percent$$00000014  0x0800029a   Section        6  _printf_s.o(.ARM.Collect$$_printf_percent$$00000014)
    .ARM.Collect$$_printf_percent$$00000015  0x080002a0   Section        6  _printf_lc.o(.ARM.Collect$$_printf_percent$$00000015)
    .ARM.Collect$$_printf_percent$$00000016  0x080002a6   Section        6  _printf_ls.o(.ARM.Collect$$_printf_percent$$00000016)
    .ARM.Collect$$_printf_percent$$00000017  0x080002ac   Section        4  _printf_percent_end.o(.ARM.Collect$$_printf_percent$$00000017)
    .ARM.Collect$$libinit$$00000000          0x080002b0   Section        2  libinit.o(.ARM.Collect$$libinit$$00000000)
    .ARM.Collect$$libinit$$00000001          0x080002b2   Section        4  libinit2.o(.ARM.Collect$$libinit$$00000001)
    .ARM.Collect$$libinit$$00000004          0x080002b6   Section        0  libinit2.o(.ARM.Collect$$libinit$$00000004)
    .ARM.Collect$$libinit$$00000005          0x080002b6   Section        8  libinit2.o(.ARM.Collect$$libinit$$00000005)
    .ARM.Collect$$libinit$$0000000A          0x080002be   Section        0  libinit2.o(.ARM.Collect$$libinit$$0000000A)
    .ARM.Collect$$libinit$$0000000C          0x080002be   Section        0  libinit2.o(.ARM.Collect$$libinit$$0000000C)
    .ARM.Collect$$libinit$$0000000E          0x080002be   Section        0  libinit2.o(.ARM.Collect$$libinit$$0000000E)
    .ARM.Collect$$libinit$$0000000F          0x080002be   Section        6  libinit2.o(.ARM.Collect$$libinit$$0000000F)
    .ARM.Collect$$libinit$$00000011          0x080002c4   Section        0  libinit2.o(.ARM.Collect$$libinit$$00000011)
    .ARM.Collect$$libinit$$00000012          0x080002c4   Section       12  libinit2.o(.ARM.Collect$$libinit$$00000012)
    .ARM.Collect$$libinit$$00000013          0x080002d0   Section        0  libinit2.o(.ARM.Collect$$libinit$$00000013)
    .ARM.Collect$$libinit$$00000014          0x080002d0   Section       10  libinit2.o(.ARM.Collect$$libinit$$00000014)
    .ARM.Collect$$libinit$$00000015          0x080002da   Section        0  libinit2.o(.ARM.Collect$$libinit$$00000015)
    .ARM.Collect$$libinit$$00000016          0x080002da   Section       10  libinit2.o(.ARM.Collect$$libinit$$00000016)
    .ARM.Collect$$libinit$$00000017          0x080002e4   Section        0  libinit2.o(.ARM.Collect$$libinit$$00000017)
    .ARM.Collect$$libinit$$00000019          0x080002e4   Section        0  libinit2.o(.ARM.Collect$$libinit$$00000019)
    .ARM.Collect$$libinit$$0000001B          0x080002e4   Section        0  libinit2.o(.ARM.Collect$$libinit$$0000001B)
    .ARM.Collect$$libinit$$0000001D          0x080002e4   Section        0  libinit2.o(.ARM.Collect$$libinit$$0000001D)
    .ARM.Collect$$libinit$$0000001F          0x080002e4   Section        0  libinit2.o(.ARM.Collect$$libinit$$0000001F)
    .ARM.Collect$$libinit$$00000021          0x080002e4   Section        0  libinit2.o(.ARM.Collect$$libinit$$00000021)
    .ARM.Collect$$libinit$$00000023          0x080002e4   Section        0  libinit2.o(.ARM.Collect$$libinit$$00000023)
    .ARM.Collect$$libinit$$00000025          0x080002e4   Section        0  libinit2.o(.ARM.Collect$$libinit$$00000025)
    .ARM.Collect$$libinit$$0000002C          0x080002e4   Section        0  libinit2.o(.ARM.Collect$$libinit$$0000002C)
    .ARM.Collect$$libinit$$0000002E          0x080002e4   Section        0  libinit2.o(.ARM.Collect$$libinit$$0000002E)
    .ARM.Collect$$libinit$$00000030          0x080002e4   Section        0  libinit2.o(.ARM.Collect$$libinit$$00000030)
    .ARM.Collect$$libinit$$00000032          0x080002e4   Section        0  libinit2.o(.ARM.Collect$$libinit$$00000032)
    .ARM.Collect$$libinit$$00000033          0x080002e4   Section        2  libinit2.o(.ARM.Collect$$libinit$$00000033)
    .ARM.Collect$$libshutdown$$00000000      0x080002e6   Section        2  libshutdown.o(.ARM.Collect$$libshutdown$$00000000)
    .ARM.Collect$$libshutdown$$00000002      0x080002e8   Section        0  libshutdown2.o(.ARM.Collect$$libshutdown$$00000002)
    .ARM.Collect$$libshutdown$$00000004      0x080002e8   Section        0  libshutdown2.o(.ARM.Collect$$libshutdown$$00000004)
    .ARM.Collect$$libshutdown$$00000007      0x080002e8   Section        0  libshutdown2.o(.ARM.Collect$$libshutdown$$00000007)
    .ARM.Collect$$libshutdown$$0000000A      0x080002e8   Section        0  libshutdown2.o(.ARM.Collect$$libshutdown$$0000000A)
    .ARM.Collect$$libshutdown$$0000000C      0x080002e8   Section        0  libshutdown2.o(.ARM.Collect$$libshutdown$$0000000C)
    .ARM.Collect$$libshutdown$$0000000F      0x080002e8   Section        0  libshutdown2.o(.ARM.Collect$$libshutdown$$0000000F)
    .ARM.Collect$$libshutdown$$00000010      0x080002e8   Section        2  libshutdown2.o(.ARM.Collect$$libshutdown$$00000010)
    .ARM.Collect$$rtentry$$00000000          0x080002ea   Section        0  __rtentry.o(.ARM.Collect$$rtentry$$00000000)
    .ARM.Collect$$rtentry$$00000002          0x080002ea   Section        0  __rtentry2.o(.ARM.Collect$$rtentry$$00000002)
    .ARM.Collect$$rtentry$$00000004          0x080002ea   Section        6  __rtentry4.o(.ARM.Collect$$rtentry$$00000004)
    .ARM.Collect$$rtentry$$00000009          0x080002f0   Section        0  __rtentry2.o(.ARM.Collect$$rtentry$$00000009)
    .ARM.Collect$$rtentry$$0000000A          0x080002f0   Section        4  __rtentry2.o(.ARM.Collect$$rtentry$$0000000A)
    .ARM.Collect$$rtentry$$0000000C          0x080002f4   Section        0  __rtentry2.o(.ARM.Collect$$rtentry$$0000000C)
    .ARM.Collect$$rtentry$$0000000D          0x080002f4   Section        8  __rtentry2.o(.ARM.Collect$$rtentry$$0000000D)
    .ARM.Collect$$rtexit$$00000000           0x080002fc   Section        2  rtexit.o(.ARM.Collect$$rtexit$$00000000)
    .ARM.Collect$$rtexit$$00000002           0x080002fe   Section        0  rtexit2.o(.ARM.Collect$$rtexit$$00000002)
    .ARM.Collect$$rtexit$$00000003           0x080002fe   Section        4  rtexit2.o(.ARM.Collect$$rtexit$$00000003)
    .ARM.Collect$$rtexit$$00000004           0x08000302   Section        6  rtexit2.o(.ARM.Collect$$rtexit$$00000004)
    .emb_text                                0x08000308   Section        0  maybetermalloc1.o(.emb_text)
    .text                                    0x08000308   Section       68  startup_stm32f429xx.o(.text)
    $v0                                      0x08000308   Number         0  startup_stm32f429xx.o(.text)
    .text                                    0x0800034c   Section        2  use_no_semi_2.o(.text)
    .text                                    0x0800034e   Section        0  h1_alloc.o(.text)
    .text                                    0x080003ac   Section        0  h1_free.o(.text)
    .text                                    0x080003fa   Section        0  h1_realloc.o(.text)
    .text                                    0x080004b4   Section        0  vprintf.o(.text)
    .text                                    0x080004c0   Section        0  vsprintf.o(.text)
    .text                                    0x080004e4   Section        0  vsnprintf.o(.text)
    .text                                    0x08000518   Section        0  __2printf.o(.text)
    .text                                    0x08000530   Section        0  __2sprintf.o(.text)
    .text                                    0x0800055c   Section        0  _printf_pad.o(.text)
    .text                                    0x080005aa   Section        0  _printf_str.o(.text)
    .text                                    0x080005fc   Section        0  _printf_dec.o(.text)
    .text                                    0x08000674   Section        0  _printf_hex_int_ll_ptr.o(.text)
    _printf_hex_common                       0x08000675   Thumb Code     0  _printf_hex_int_ll_ptr.o(.text)
    .text                                    0x08000708   Section        0  __printf_flags_ss_wp.o(.text)
    .text                                    0x08000890   Section        0  __0sscanf.o(.text)
    .text                                    0x080008cc   Section        0  localeconv.o(.text)
    .text                                    0x080008dc   Section        0  strstr.o(.text)
    .text                                    0x08000900   Section        0  strcpy.o(.text)
    .text                                    0x08000948   Section        0  strlen.o(.text)
    .text                                    0x08000986   Section      138  rt_memcpy_v6.o(.text)
    .text                                    0x08000a10   Section      100  rt_memcpy_w.o(.text)
    .text                                    0x08000a74   Section       68  rt_memclr.o(.text)
    .text                                    0x08000ab8   Section       78  rt_memclr_w.o(.text)
    .text                                    0x08000b08   Section      128  strcmpv7m.o(.text)
    .text                                    0x08000b88   Section        0  heapauxi.o(.text)
    .text                                    0x08000b8e   Section        2  use_no_semi.o(.text)
    .text                                    0x08000b90   Section       16  rt_ctype_table.o(.text)
    .text                                    0x08000ba0   Section        8  rt_heap_descriptor_intlibspace.o(.text)
    .text                                    0x08000ba8   Section        0  hguard.o(.text)
    .text                                    0x08000bac   Section        0  init_alloc.o(.text)
    .text                                    0x08000c36   Section        0  h1_init.o(.text)
    .text                                    0x08000c44   Section        0  _printf_truncate.o(.text)
    .text                                    0x08000c68   Section        0  _printf_intcommon.o(.text)
    .text                                    0x08000d1a   Section        0  _printf_charcount.o(.text)
    .text                                    0x08000d42   Section        0  _printf_fp_dec.o(.text)
    _fp_digits                               0x08000d45   Thumb Code   428  _printf_fp_dec.o(.text)
    .text                                    0x0800115c   Section        0  _printf_char_common.o(.text)
    _printf_input_char                       0x0800115d   Thumb Code    10  _printf_char_common.o(.text)
    .text                                    0x0800118c   Section        0  _sputc.o(.text)
    .text                                    0x08001196   Section        0  _snputc.o(.text)
    .text                                    0x080011a6   Section        0  _printf_char.o(.text)
    .text                                    0x080011d4   Section        0  _printf_char_file.o(.text)
    .text                                    0x080011f8   Section        0  _printf_wctomb.o(.text)
    .text                                    0x080012b4   Section        0  _printf_longlong_dec.o(.text)
    .text                                    0x08001330   Section        0  _printf_oct_int_ll.o(.text)
    _printf_longlong_oct_internal            0x08001331   Thumb Code     0  _printf_oct_int_ll.o(.text)
    .text                                    0x080013a0   Section        0  scanf_fp.o(.text)
    _fp_value                                0x080013a1   Thumb Code   508  scanf_fp.o(.text)
    .text                                    0x08001844   Section        0  scanf_char.o(.text)
    _scanf_char_input                        0x08001845   Thumb Code    12  scanf_char.o(.text)
    .text                                    0x08001870   Section        0  _sgetc.o(.text)
    .text                                    0x080018b0   Section        0  _lconv.o(.text)
    .text                                    0x08001924   Section        8  libspace.o(.text)
    .text                                    0x0800192c   Section        8  rt_locale_intlibspace.o(.text)
    .text                                    0x08001934   Section        8  rt_errno_addr_intlibspace.o(.text)
    .text                                    0x0800193c   Section        0  h1_extend.o(.text)
    .text                                    0x08001970   Section      138  lludiv10.o(.text)
    .text                                    0x080019fa   Section        0  isspace.o(.text)
    .text                                    0x08001a0c   Section        0  _printf_fp_hex.o(.text)
    .text                                    0x08001d08   Section        0  _printf_fp_infnan.o(.text)
    .text                                    0x08001d88   Section        0  _printf_wchar.o(.text)
    .text                                    0x08001db4   Section        0  _scanf.o(.text)
    .text                                    0x08002128   Section        0  bigflt0.o(.text)
    .text                                    0x08002204   Section        0  ferror.o(.text)
    .text                                    0x0800220c   Section        0  _wcrtomb.o(.text)
    .text                                    0x0800224c   Section        0  defsig_rtmem_outer.o(.text)
    .text                                    0x0800225a   Section       74  sys_stackheap_outer.o(.text)
    .text                                    0x080022a4   Section        0  _rserrno.o(.text)
    .text                                    0x080022bc   Section        0  scanf_hexfp.o(.text)
    .text                                    0x080025dc   Section        0  scanf_infnan.o(.text)
    .text                                    0x08002710   Section        0  exit.o(.text)
    .text                                    0x08002722   Section        0  defsig_exit.o(.text)
    .text                                    0x0800272c   Section        0  defsig_rtmem_inner.o(.text)
    .text                                    0x0800277c   Section       38  llshl.o(.text)
    .text                                    0x080027a2   Section        0  _chval.o(.text)
    .text                                    0x080027be   Section        0  defsig_general.o(.text)
    CL$$btod_d2e                             0x080027f0   Section       62  btod.o(CL$$btod_d2e)
    CL$$btod_d2e_denorm_low                  0x0800282e   Section       70  btod.o(CL$$btod_d2e_denorm_low)
    CL$$btod_d2e_norm_op1                    0x08002874   Section       96  btod.o(CL$$btod_d2e_norm_op1)
    CL$$btod_div_common                      0x080028d4   Section      824  btod.o(CL$$btod_div_common)
    CL$$btod_e2d                             0x08002c0c   Section       84  btod.o(CL$$btod_e2d)
    CL$$btod_e2e                             0x08002c60   Section      198  btod.o(CL$$btod_e2e)
    CL$$btod_ediv                            0x08002d26   Section       40  btod.o(CL$$btod_ediv)
    CL$$btod_edivd                           0x08002d4e   Section       40  btod.o(CL$$btod_edivd)
    CL$$btod_emul                            0x08002d76   Section       40  btod.o(CL$$btod_emul)
    CL$$btod_emuld                           0x08002d9e   Section       40  btod.o(CL$$btod_emuld)
    CL$$btod_mult_common                     0x08002dc6   Section      580  btod.o(CL$$btod_mult_common)
    i.AtoI                                   0x0800300a   Section        0  wayz.o(i.AtoI)
    i.GPIO_AF_Set                            0x08003094   Section        0  sys.o(i.GPIO_AF_Set)
    i.GPIO_Set                               0x080030d4   Section        0  sys.o(i.GPIO_Set)
    i.HAL_Snprintf                           0x080031e0   Section        0  wayz.o(i.HAL_Snprintf)
    i.LCD_Clear                              0x08003208   Section        0  lcd.o(i.LCD_Clear)
    i.LCD_Display_Dir                        0x08003250   Section        0  lcd.o(i.LCD_Display_Dir)
    i.LCD_DrawLine                           0x080033d0   Section        0  lcd.o(i.LCD_DrawLine)
    i.LCD_DrawPoint                          0x08003480   Section        0  lcd.o(i.LCD_DrawPoint)
    i.LCD_Fast_DrawPoint                     0x080034bc   Section        0  lcd.o(i.LCD_Fast_DrawPoint)
    i.LCD_Init                               0x080035e0   Section        0  lcd.o(i.LCD_Init)
    i.LCD_Pow                                0x08005b70   Section        0  lcd.o(i.LCD_Pow)
    i.LCD_RD_DATA                            0x08005b88   Section        0  lcd.o(i.LCD_RD_DATA)
    i.LCD_SSD_BackLightSet                   0x08005b9c   Section        0  lcd.o(i.LCD_SSD_BackLightSet)
    i.LCD_Scan_Dir                           0x08005bfc   Section        0  lcd.o(i.LCD_Scan_Dir)
    i.LCD_SetCursor                          0x08005e70   Section        0  lcd.o(i.LCD_SetCursor)
    i.LCD_ShowChar                           0x08005fa8   Section        0  lcd.o(i.LCD_ShowChar)
    i.LCD_ShowNum                            0x080060e4   Section        0  lcd.o(i.LCD_ShowNum)
    i.LCD_ShowString                         0x08006178   Section        0  lcd.o(i.LCD_ShowString)
    i.LCD_WR_DATA                            0x080061e0   Section        0  lcd.o(i.LCD_WR_DATA)
    i.LCD_WR_REG                             0x080061f8   Section        0  lcd.o(i.LCD_WR_REG)
    i.LCD_WriteRAM_Prepare                   0x08006210   Section        0  lcd.o(i.LCD_WriteRAM_Prepare)
    i.LCD_WriteReg                           0x08006224   Section        0  lcd.o(i.LCD_WriteReg)
    i.LTDC_Clear                             0x08006234   Section        0  ltdc.o(i.LTDC_Clear)
    i.LTDC_Clk_Set                           0x08006258   Section        0  ltdc.o(i.LTDC_Clk_Set)
    i.LTDC_Display_Dir                       0x080062f0   Section        0  ltdc.o(i.LTDC_Display_Dir)
    i.LTDC_Draw_Point                        0x0800631c   Section        0  ltdc.o(i.LTDC_Draw_Point)
    i.LTDC_Fill                              0x0800637c   Section        0  ltdc.o(i.LTDC_Fill)
    i.LTDC_Init                              0x080064c4   Section        0  ltdc.o(i.LTDC_Init)
    i.LTDC_Layer_Parameter_Config            0x08006850   Section        0  ltdc.o(i.LTDC_Layer_Parameter_Config)
    i.LTDC_Layer_Switch                      0x080068d8   Section        0  ltdc.o(i.LTDC_Layer_Switch)
    i.LTDC_Layer_Window_Config               0x08006938   Section        0  ltdc.o(i.LTDC_Layer_Window_Config)
    i.LTDC_PanelID_Read                      0x08006a70   Section        0  ltdc.o(i.LTDC_PanelID_Read)
    i.LTDC_Select_Layer                      0x08006b10   Section        0  ltdc.o(i.LTDC_Select_Layer)
    i.LTDC_Switch                            0x08006b1c   Section        0  ltdc.o(i.LTDC_Switch)
    i.MY_NVIC_Init                           0x08006b44   Section        0  sys.o(i.MY_NVIC_Init)
    i.MY_NVIC_PriorityGroupConfig            0x08006bbc   Section        0  sys.o(i.MY_NVIC_PriorityGroupConfig)
    i.MY_NVIC_SetVectorTable                 0x08006be4   Section        0  sys.o(i.MY_NVIC_SetVectorTable)
    i.SDRAM_Init                             0x08006bf4   Section        0  sdram.o(i.SDRAM_Init)
    i.SDRAM_Send_Cmd                         0x08006ec0   Section        0  sdram.o(i.SDRAM_Send_Cmd)
    i.Stm32_Clock_Init                       0x08006f08   Section        0  sys.o(i.Stm32_Clock_Init)
    i.Sys_Clock_Set                          0x08006f70   Section        0  sys.o(i.Sys_Clock_Set)
    i.TIM3_IRQHandler                        0x0800707c   Section        0  timer.o(i.TIM3_IRQHandler)
    i.TIM5_IRQHandler                        0x080070ac   Section        0  timer.o(i.TIM5_IRQHandler)
    i.TIM7_IRQHandler                        0x08007194   Section        0  timer.o(i.TIM7_IRQHandler)
    i.TIM7_Int_Init                          0x080071d0   Section        0  timer.o(i.TIM7_Int_Init)
    i.USART1_IRQHandler                      0x08007228   Section        0  usart.o(i.USART1_IRQHandler)
    i.USART3_IRQHandler                      0x080072b0   Section        0  usart3.o(i.USART3_IRQHandler)
    i.__ARM_fpclassify                       0x08007320   Section        0  fpclassify.o(i.__ARM_fpclassify)
    i.__hardfp_ldexp                         0x08007350   Section        0  ldexp.o(i.__hardfp_ldexp)
    i.__mathlib_dbl_overflow                 0x08007420   Section        0  dunder.o(i.__mathlib_dbl_overflow)
    i.__mathlib_dbl_underflow                0x08007440   Section        0  dunder.o(i.__mathlib_dbl_underflow)
    i.__mathlib_narrow                       0x08007460   Section        0  narrow.o(i.__mathlib_narrow)
    i.__support_ldexp                        0x08007518   Section        0  ldexp.o(i.__support_ldexp)
    i._is_digit                              0x0800752c   Section        0  __printf_wp.o(i._is_digit)
    i._sys_exit                              0x0800753a   Section        0  usart.o(i._sys_exit)
    i._ttywrch                               0x0800753e   Section        0  usart.o(i._ttywrch)
    i.asset2Json                             0x08007544   Section        0  wayz.o(i.asset2Json)
    i.atk_8266_bridge                        0x0800761c   Section        0  wayz.o(i.atk_8266_bridge)
    i.atk_8266_check_cmd                     0x080076e0   Section        0  wayz.o(i.atk_8266_check_cmd)
    i.atk_8266_quit_trans                    0x08007754   Section        0  wayz.o(i.atk_8266_quit_trans)
    i.atk_8266_send_cmd                      0x080077c4   Section        0  wayz.o(i.atk_8266_send_cmd)
    i.cJSON_AddItemToArray                   0x08007908   Section        0  cjson.o(i.cJSON_AddItemToArray)
    i.cJSON_AddItemToObject                  0x08007934   Section        0  cjson.o(i.cJSON_AddItemToObject)
    i.cJSON_AddItemToObjectCS                0x08007964   Section        0  cjson.o(i.cJSON_AddItemToObjectCS)
    i.cJSON_CreateArray                      0x080079a0   Section        0  cjson.o(i.cJSON_CreateArray)
    i.cJSON_CreateBool                       0x080079b8   Section        0  cjson.o(i.cJSON_CreateBool)
    i.cJSON_CreateNumber                     0x080079d8   Section        0  cjson.o(i.cJSON_CreateNumber)
    i.cJSON_CreateObject                     0x08007a54   Section        0  cjson.o(i.cJSON_CreateObject)
    i.cJSON_CreateString                     0x08007a6c   Section        0  cjson.o(i.cJSON_CreateString)
    i.cJSON_Delete                           0x08007aa0   Section        0  cjson.o(i.cJSON_Delete)
    i.cJSON_New_Item                         0x08007af8   Section        0  cjson.o(i.cJSON_New_Item)
    cJSON_New_Item                           0x08007af9   Thumb Code    28  cjson.o(i.cJSON_New_Item)
    i.cJSON_Print                            0x08007b14   Section        0  cjson.o(i.cJSON_Print)
    i.cJSON_PrintUnformatted                 0x08007b28   Section        0  cjson.o(i.cJSON_PrintUnformatted)
    i.cJSON_strdup                           0x08007b3c   Section        0  cjson.o(i.cJSON_strdup)
    cJSON_strdup                             0x08007b3d   Thumb Code    56  cjson.o(i.cJSON_strdup)
    i.connectWifi                            0x08007b74   Section        0  wayz.o(i.connectWifi)
    i.delay_init                             0x08007d54   Section        0  delay.o(i.delay_init)
    i.delay_ms                               0x08007d8c   Section        0  delay.o(i.delay_ms)
    i.delay_us                               0x08007dc4   Section        0  delay.o(i.delay_us)
    i.delay_xms                              0x08007e00   Section        0  delay.o(i.delay_xms)
    i.ensure                                 0x08007e3c   Section        0  cjson.o(i.ensure)
    ensure                                   0x08007e3d   Thumb Code   172  cjson.o(i.ensure)
    i.fputc                                  0x08007ee8   Section        0  usart.o(i.fputc)
    i.frexp                                  0x08007f08   Section        0  frexp.o(i.frexp)
    i.getDEVID                               0x08007f94   Section        0  wayz.o(i.getDEVID)
    i.getInfoFromRaw                         0x08007f9c   Section        0  wayz.o(i.getInfoFromRaw)
    i.getMAC                                 0x08008214   Section        0  wayz.o(i.getMAC)
    i.getMODEL                               0x08008294   Section        0  wayz.o(i.getMODEL)
    i.getSOFTV                               0x0800829c   Section        0  wayz.o(i.getSOFTV)
    i.getUUID                                0x080082a4   Section        0  wayz.o(i.getUUID)
    i.getWifiCount                           0x080082ac   Section        0  wayz.o(i.getWifiCount)
    i.get_decimal_point                      0x080082c4   Section        0  cjson.o(i.get_decimal_point)
    get_decimal_point                        0x080082c5   Thumb Code    14  cjson.o(i.get_decimal_point)
    i.gnss2Json                              0x080082d4   Section        0  wayz.o(i.gnss2Json)
    i.initESP8266                            0x080084c0   Section        0  wayz.o(i.initESP8266)
    i.location2Json                          0x08008538   Section        0  wayz.o(i.location2Json)
    i.logd                                   0x080085d8   Section        0  zlog.o(i.logd)
    i.loge                                   0x08008608   Section        0  zlog.o(i.loge)
    i.logi                                   0x08008638   Section        0  zlog.o(i.logi)
    i.mMemset                                0x08008668   Section        0  cjson.o(i.mMemset)
    i.main                                   0x0800867c   Section        0  main.o(i.main)
    i.os2Json                                0x080087e0   Section        0  wayz.o(i.os2Json)
    i.print                                  0x08008828   Section        0  cjson.o(i.print)
    print                                    0x08008829   Thumb Code   166  cjson.o(i.print)
    i.printOutInfo                           0x080088d0   Section        0  wayz.o(i.printOutInfo)
    i.print_array                            0x08008a20   Section        0  cjson.o(i.print_array)
    print_array                              0x08008a21   Thumb Code   178  cjson.o(i.print_array)
    i.print_number                           0x08008ad4   Section        0  cjson.o(i.print_number)
    print_number                             0x08008ad5   Thumb Code   232  cjson.o(i.print_number)
    i.print_object                           0x08008be0   Section        0  cjson.o(i.print_object)
    print_object                             0x08008be1   Thumb Code   372  cjson.o(i.print_object)
    i.print_string                           0x08008d54   Section        0  cjson.o(i.print_string)
    print_string                             0x08008d55   Thumb Code    16  cjson.o(i.print_string)
    i.print_string_ptr                       0x08008d64   Section        0  cjson.o(i.print_string_ptr)
    print_string_ptr                         0x08008d65   Thumb Code   360  cjson.o(i.print_string_ptr)
    i.print_value                            0x08008ed8   Section        0  cjson.o(i.print_value)
    print_value                              0x08008ed9   Thumb Code   246  cjson.o(i.print_value)
    i.strCount                               0x08008fe8   Section        0  wayz.o(i.strCount)
    i.suffix_object                          0x08009018   Section        0  cjson.o(i.suffix_object)
    suffix_object                            0x08009019   Thumb Code     6  cjson.o(i.suffix_object)
    i.track2CJson                            0x08009020   Section        0  wayz.o(i.track2CJson)
    i.track2JsonString                       0x0800913c   Section        0  wayz.o(i.track2JsonString)
    i.u3_printf                              0x0800919c   Section        0  usart3.o(i.u3_printf)
    i.uart_init                              0x080091ec   Section        0  usart.o(i.uart_init)
    i.update_offset                          0x080092ec   Section        0  cjson.o(i.update_offset)
    update_offset                            0x080092ed   Thumb Code    36  cjson.o(i.update_offset)
    i.usart3_init                            0x08009310   Section        0  usart3.o(i.usart3_init)
    i.wifi2Json                              0x08009430   Section        0  wayz.o(i.wifi2Json)
    i.wifiscan                               0x08009644   Section        0  wayz.o(i.wifiscan)
    locale$$code                             0x08009ca0   Section       44  lc_ctype_c.o(locale$$code)
    locale$$code                             0x08009ccc   Section       44  lc_monetary_c.o(locale$$code)
    locale$$code                             0x08009cf8   Section       44  lc_numeric_c.o(locale$$code)
    x$fpl$d2f                                0x08009d24   Section       98  d2f.o(x$fpl$d2f)
    $v0                                      0x08009d24   Number         0  d2f.o(x$fpl$d2f)
    x$fpl$dcheck1                            0x08009d88   Section       16  dcheck1.o(x$fpl$dcheck1)
    $v0                                      0x08009d88   Number         0  dcheck1.o(x$fpl$dcheck1)
    x$fpl$dcmpinf                            0x08009d98   Section       24  dcmpi.o(x$fpl$dcmpinf)
    $v0                                      0x08009d98   Number         0  dcmpi.o(x$fpl$dcmpinf)
    x$fpl$deqf                               0x08009db0   Section      120  deqf.o(x$fpl$deqf)
    $v0                                      0x08009db0   Number         0  deqf.o(x$fpl$deqf)
    x$fpl$dfix                               0x08009e28   Section       94  dfix.o(x$fpl$dfix)
    $v0                                      0x08009e28   Number         0  dfix.o(x$fpl$dfix)
    x$fpl$dfixu                              0x08009e88   Section       90  dfixu.o(x$fpl$dfixu)
    $v0                                      0x08009e88   Number         0  dfixu.o(x$fpl$dfixu)
    x$fpl$dflt                               0x08009ee2   Section       46  dflt_clz.o(x$fpl$dflt)
    $v0                                      0x08009ee2   Number         0  dflt_clz.o(x$fpl$dflt)
    x$fpl$dfltll                             0x08009f10   Section      162  dfltll_clz.o(x$fpl$dfltll)
    $v0                                      0x08009f10   Number         0  dfltll_clz.o(x$fpl$dfltll)
    x$fpl$dfltu                              0x08009fb2   Section       38  dflt_clz.o(x$fpl$dfltu)
    $v0                                      0x08009fb2   Number         0  dflt_clz.o(x$fpl$dfltu)
    x$fpl$dleqf                              0x08009fd8   Section      120  dleqf.o(x$fpl$dleqf)
    $v0                                      0x08009fd8   Number         0  dleqf.o(x$fpl$dleqf)
    x$fpl$dmul                               0x0800a050   Section      340  dmul.o(x$fpl$dmul)
    $v0                                      0x0800a050   Number         0  dmul.o(x$fpl$dmul)
    x$fpl$dnaninf                            0x0800a1a4   Section      156  dnaninf.o(x$fpl$dnaninf)
    $v0                                      0x0800a1a4   Number         0  dnaninf.o(x$fpl$dnaninf)
    x$fpl$dretinf                            0x0800a240   Section       12  dretinf.o(x$fpl$dretinf)
    $v0                                      0x0800a240   Number         0  dretinf.o(x$fpl$dretinf)
    x$fpl$drleqf                             0x0800a24c   Section      108  drleqf.o(x$fpl$drleqf)
    $v0                                      0x0800a24c   Number         0  drleqf.o(x$fpl$drleqf)
    x$fpl$f2d                                0x0800a2b8   Section       86  f2d.o(x$fpl$f2d)
    $v0                                      0x0800a2b8   Number         0  f2d.o(x$fpl$f2d)
    x$fpl$fnaninf                            0x0800a30e   Section      140  fnaninf.o(x$fpl$fnaninf)
    $v0                                      0x0800a30e   Number         0  fnaninf.o(x$fpl$fnaninf)
    x$fpl$fpinit                             0x0800a39a   Section       10  fpinit.o(x$fpl$fpinit)
    $v0                                      0x0800a39a   Number         0  fpinit.o(x$fpl$fpinit)
    x$fpl$fretinf                            0x0800a3a4   Section       10  fretinf.o(x$fpl$fretinf)
    $v0                                      0x0800a3a4   Number         0  fretinf.o(x$fpl$fretinf)
    x$fpl$printf1                            0x0800a3ae   Section        4  printf1.o(x$fpl$printf1)
    $v0                                      0x0800a3ae   Number         0  printf1.o(x$fpl$printf1)
    x$fpl$printf2                            0x0800a3b2   Section        4  printf2.o(x$fpl$printf2)
    $v0                                      0x0800a3b2   Number         0  printf2.o(x$fpl$printf2)
    x$fpl$retnan                             0x0800a3b6   Section      100  retnan.o(x$fpl$retnan)
    $v0                                      0x0800a3b6   Number         0  retnan.o(x$fpl$retnan)
    x$fpl$scalbn                             0x0800a41a   Section       92  scalbn.o(x$fpl$scalbn)
    $v0                                      0x0800a41a   Number         0  scalbn.o(x$fpl$scalbn)
    x$fpl$scanf1                             0x0800a476   Section        4  scanf1.o(x$fpl$scanf1)
    $v0                                      0x0800a476   Number         0  scanf1.o(x$fpl$scanf1)
    x$fpl$scanf2                             0x0800a47a   Section        8  scanf2.o(x$fpl$scanf2)
    $v0                                      0x0800a47a   Number         0  scanf2.o(x$fpl$scanf2)
    x$fpl$trapveneer                         0x0800a482   Section       48  trapv.o(x$fpl$trapveneer)
    $v0                                      0x0800a482   Number         0  trapv.o(x$fpl$trapveneer)
    .constdata                               0x0800a4b2   Section    18240  lcd.o(.constdata)
    x$fpl$usenofp                            0x0800a4b2   Section        0  usenofp.o(x$fpl$usenofp)
    .constdata                               0x0800ebf2   Section       40  _printf_hex_int_ll_ptr.o(.constdata)
    uc_hextab                                0x0800ebf2   Data          20  _printf_hex_int_ll_ptr.o(.constdata)
    lc_hextab                                0x0800ec06   Data          20  _printf_hex_int_ll_ptr.o(.constdata)
    .constdata                               0x0800ec1a   Section       17  __printf_flags_ss_wp.o(.constdata)
    maptable                                 0x0800ec1a   Data          17  __printf_flags_ss_wp.o(.constdata)
    .constdata                               0x0800ec2c   Section        8  _printf_wctomb.o(.constdata)
    initial_mbstate                          0x0800ec2c   Data           8  _printf_wctomb.o(.constdata)
    .constdata                               0x0800ec34   Section       38  _printf_fp_hex.o(.constdata)
    lc_hextab                                0x0800ec34   Data          19  _printf_fp_hex.o(.constdata)
    uc_hextab                                0x0800ec47   Data          19  _printf_fp_hex.o(.constdata)
    .constdata                               0x0800ec5c   Section      148  bigflt0.o(.constdata)
    tenpwrs_x                                0x0800ec5c   Data          60  bigflt0.o(.constdata)
    tenpwrs_i                                0x0800ec98   Data          64  bigflt0.o(.constdata)
    .conststring                             0x0800ecf0   Section      219  wayz.o(.conststring)
    c$$dinf                                  0x0800edec   Section        8  fpconst.o(c$$dinf)
    locale$$data                             0x0800edf4   Section      272  lc_ctype_c.o(locale$$data)
    __lcctype_c_name                         0x0800edf8   Data           2  lc_ctype_c.o(locale$$data)
    __lcctype_c_start                        0x0800ee00   Data           0  lc_ctype_c.o(locale$$data)
    locale$$data                             0x0800ef04   Section       56  lc_monetary_c.o(locale$$data)
    __lcctype_c_end                          0x0800ef04   Data           0  lc_ctype_c.o(locale$$data)
    __lcmon_c_name                           0x0800ef08   Data           2  lc_monetary_c.o(locale$$data)
    __lcmon_c_start                          0x0800ef10   Data           0  lc_monetary_c.o(locale$$data)
    __lcmon_c_int_curr_symbol                0x0800ef34   Data           0  lc_monetary_c.o(locale$$data)
    __lcmon_c_curr_symbol                    0x0800ef35   Data           0  lc_monetary_c.o(locale$$data)
    __lcmon_c_mon_point                      0x0800ef36   Data           0  lc_monetary_c.o(locale$$data)
    __lcmon_c_mon_thous                      0x0800ef37   Data           0  lc_monetary_c.o(locale$$data)
    __lcmon_c_mon_grouping                   0x0800ef38   Data           0  lc_monetary_c.o(locale$$data)
    __lcmon_c_positive_sign                  0x0800ef39   Data           0  lc_monetary_c.o(locale$$data)
    __lcmon_c_negative_sign                  0x0800ef3a   Data           0  lc_monetary_c.o(locale$$data)
    locale$$data                             0x0800ef3c   Section       28  lc_numeric_c.o(locale$$data)
    __lcmon_c_end                            0x0800ef3c   Data           0  lc_monetary_c.o(locale$$data)
    __lcnum_c_name                           0x0800ef40   Data           2  lc_numeric_c.o(locale$$data)
    __lcnum_c_start                          0x0800ef48   Data           0  lc_numeric_c.o(locale$$data)
    __lcnum_c_point                          0x0800ef54   Data           0  lc_numeric_c.o(locale$$data)
    __lcnum_c_thousands                      0x0800ef56   Data           0  lc_numeric_c.o(locale$$data)
    __lcnum_c_grouping                       0x0800ef57   Data           0  lc_numeric_c.o(locale$$data)
    __lcnum_c_end                            0x0800ef58   Data           0  lc_numeric_c.o(locale$$data)
    .data                                    0x20000000   Section        6  usart.o(.data)
    .data                                    0x20000006   Section        4  delay.o(.data)
    fac_us                                   0x20000006   Data           1  delay.o(.data)
    fac_ms                                   0x20000008   Data           2  delay.o(.data)
    .data                                    0x2000000c   Section       66  wayz.o(.data)
    line                                     0x20000028   Data          38  wayz.o(.data)
    .data                                    0x20000050   Section       20  cjson.o(.data)
    global_error                             0x20000050   Data           8  cjson.o(.data)
    global_hooks                             0x20000058   Data          12  cjson.o(.data)
    .data                                    0x20000064   Section        8  lcd.o(.data)
    .data                                    0x2000006c   Section        8  ltdc.o(.data)
    .data                                    0x20000074   Section        2  usart3.o(.data)
    .data                                    0x20000078   Section        8  timer.o(.data)
    .bss                                     0x20000080   Section     5000  usart.o(.bss)
    .bss                                     0x20001408   Section     7010  wayz.o(.bss)
    line                                     0x20002eca   Data          20  wayz.o(.bss)
    line                                     0x20002ede   Data          20  wayz.o(.bss)
    line                                     0x20002ef2   Data         100  wayz.o(.bss)
    line                                     0x20002f56   Data          20  wayz.o(.bss)
    .bss                                     0x20002f6a   Section       14  lcd.o(.bss)
    .bss                                     0x20002f78   Section       32  ltdc.o(.bss)
    .bss                                     0x20002f98   Section     6000  usart3.o(.bss)
    .bss                                     0x20004708   Section       48  localeconv.o(.bss)
    lc                                       0x20004708   Data          48  localeconv.o(.bss)
    .bss                                     0x20004738   Section       96  libspace.o(.bss)
    HEAP                                     0x20004798   Section        0  startup_stm32f429xx.o(HEAP)
    STACK                                    0x20004798   Section    32768  startup_stm32f429xx.o(STACK)
    Heap_Mem                                 0x20004798   Data           0  startup_stm32f429xx.o(HEAP)
    Stack_Mem                                0x20004798   Data       32768  startup_stm32f429xx.o(STACK)
    __initial_sp                             0x2000c798   Data           0  startup_stm32f429xx.o(STACK)
    .ARM.__AT_0xC0000000                     0xc0000000   Section    2048000  ltdc.o(.ARM.__AT_0xC0000000)

    Global Symbols

    Symbol Name                              Value     Ov Type        Size  Object(Section)

    BuildAttributes$$THM_ISAv4$E$P$D$K$B$S$7EM$VFPi3$EXTD16$VFPS$VFMA$PE$A:L22UL41UL21$X:L11$S22US41US21$IEEE1$IW$USESV6$~STKCKD$USESV7$~SHL$OTIME$ROPI$IEEEX$EBA8$UX$STANDARDLIB$REQ8$PRES8$EABIv2 0x00000000   Number         0  anon$$obj.o ABSOLUTE
    __ARM_use_no_argv                        0x00000000   Number         0  main.o ABSOLUTE
    _printf_flags                            0x00000000   Number         0  printf_stubs.o ABSOLUTE
    _printf_return_value                     0x00000000   Number         0  printf_stubs.o ABSOLUTE
    _printf_sizespec                         0x00000000   Number         0  printf_stubs.o ABSOLUTE
    _printf_widthprec                        0x00000000   Number         0  printf_stubs.o ABSOLUTE
    __ARM_exceptions_init                     - Undefined Weak Reference
    __alloca_initialize                       - Undefined Weak Reference
    __arm_preinit_                            - Undefined Weak Reference
    __cpp_initialize__aeabi_                  - Undefined Weak Reference
    __cxa_finalize                            - Undefined Weak Reference
    __sigvec_lookup                           - Undefined Weak Reference
    __user_heap_extent                        - Undefined Weak Reference
    _atexit_init                              - Undefined Weak Reference
    _call_atexit_fns                          - Undefined Weak Reference
    _clock_init                               - Undefined Weak Reference
    _fp_trap_init                             - Undefined Weak Reference
    _fp_trap_shutdown                         - Undefined Weak Reference
    _get_lc_collate                           - Undefined Weak Reference
    _get_lc_time                              - Undefined Weak Reference
    _getenv_init                              - Undefined Weak Reference
    _handle_redirection                       - Undefined Weak Reference
    _initio                                   - Undefined Weak Reference
    _mutex_acquire                            - Undefined Weak Reference
    _mutex_free                               - Undefined Weak Reference
    _mutex_release                            - Undefined Weak Reference
    _printf_mbtowc                            - Undefined Weak Reference
    _printf_wc                                - Undefined Weak Reference
    _rand_init                                - Undefined Weak Reference
    _scanf_int                                - Undefined Weak Reference
    _scanf_longlong                           - Undefined Weak Reference
    _scanf_mbtowc                             - Undefined Weak Reference
    _scanf_string                             - Undefined Weak Reference
    _scanf_wctomb                             - Undefined Weak Reference
    _scanf_wstring                            - Undefined Weak Reference
    _signal_finish                            - Undefined Weak Reference
    _signal_init                              - Undefined Weak Reference
    _terminateio                              - Undefined Weak Reference
    __Vectors_Size                           0x000001ac   Number         0  startup_stm32f429xx.o ABSOLUTE
    __Vectors                                0x08000000   Data           4  startup_stm32f429xx.o(RESET)
    __Vectors_End                            0x080001ac   Data           0  startup_stm32f429xx.o(RESET)
    __main                                   0x080001ad   Thumb Code     8  __main.o(!!!main)
    __scatterload                            0x080001b5   Thumb Code     0  __scatter.o(!!!scatter)
    __scatterload_rt2                        0x080001b5   Thumb Code    44  __scatter.o(!!!scatter)
    __scatterload_rt2_thumb_only             0x080001b5   Thumb Code     0  __scatter.o(!!!scatter)
    __scatterload_null                       0x080001c3   Thumb Code     0  __scatter.o(!!!scatter)
    __scatterload_copy                       0x080001e9   Thumb Code    26  __scatter_copy.o(!!handler_copy)
    __scatterload_zeroinit                   0x08000205   Thumb Code    28  __scatter_zi.o(!!handler_zi)
    _printf_n                                0x08000221   Thumb Code     0  _printf_n.o(.ARM.Collect$$_printf_percent$$00000001)
    _printf_percent                          0x08000221   Thumb Code     0  _printf_percent.o(.ARM.Collect$$_printf_percent$$00000000)
    _printf_p                                0x08000227   Thumb Code     0  _printf_p.o(.ARM.Collect$$_printf_percent$$00000002)
    _printf_f                                0x0800022d   Thumb Code     0  _printf_f.o(.ARM.Collect$$_printf_percent$$00000003)
    _printf_e                                0x08000233   Thumb Code     0  _printf_e.o(.ARM.Collect$$_printf_percent$$00000004)
    _printf_g                                0x08000239   Thumb Code     0  _printf_g.o(.ARM.Collect$$_printf_percent$$00000005)
    _printf_a                                0x0800023f   Thumb Code     0  _printf_a.o(.ARM.Collect$$_printf_percent$$00000006)
    _printf_ll                               0x08000245   Thumb Code     0  _printf_ll.o(.ARM.Collect$$_printf_percent$$00000007)
    _printf_i                                0x0800024f   Thumb Code     0  _printf_i.o(.ARM.Collect$$_printf_percent$$00000008)
    _printf_d                                0x08000255   Thumb Code     0  _printf_d.o(.ARM.Collect$$_printf_percent$$00000009)
    _printf_u                                0x0800025b   Thumb Code     0  _printf_u.o(.ARM.Collect$$_printf_percent$$0000000A)
    _printf_o                                0x08000261   Thumb Code     0  _printf_o.o(.ARM.Collect$$_printf_percent$$0000000B)
    _printf_x                                0x08000267   Thumb Code     0  _printf_x.o(.ARM.Collect$$_printf_percent$$0000000C)
    _printf_lli                              0x0800026d   Thumb Code     0  _printf_lli.o(.ARM.Collect$$_printf_percent$$0000000D)
    _printf_lld                              0x08000273   Thumb Code     0  _printf_lld.o(.ARM.Collect$$_printf_percent$$0000000E)
    _printf_llu                              0x08000279   Thumb Code     0  _printf_llu.o(.ARM.Collect$$_printf_percent$$0000000F)
    _printf_llo                              0x0800027f   Thumb Code     0  _printf_llo.o(.ARM.Collect$$_printf_percent$$00000010)
    _printf_llx                              0x08000285   Thumb Code     0  _printf_llx.o(.ARM.Collect$$_printf_percent$$00000011)
    _printf_l                                0x0800028b   Thumb Code     0  _printf_l.o(.ARM.Collect$$_printf_percent$$00000012)
    _printf_c                                0x08000295   Thumb Code     0  _printf_c.o(.ARM.Collect$$_printf_percent$$00000013)
    _printf_s                                0x0800029b   Thumb Code     0  _printf_s.o(.ARM.Collect$$_printf_percent$$00000014)
    _printf_lc                               0x080002a1   Thumb Code     0  _printf_lc.o(.ARM.Collect$$_printf_percent$$00000015)
    _printf_ls                               0x080002a7   Thumb Code     0  _printf_ls.o(.ARM.Collect$$_printf_percent$$00000016)
    _printf_percent_end                      0x080002ad   Thumb Code     0  _printf_percent_end.o(.ARM.Collect$$_printf_percent$$00000017)
    __rt_lib_init                            0x080002b1   Thumb Code     0  libinit.o(.ARM.Collect$$libinit$$00000000)
    __rt_lib_init_fp_1                       0x080002b3   Thumb Code     0  libinit2.o(.ARM.Collect$$libinit$$00000001)
    __rt_lib_init_heap_2                     0x080002b7   Thumb Code     0  libinit2.o(.ARM.Collect$$libinit$$00000005)
    __rt_lib_init_preinit_1                  0x080002b7   Thumb Code     0  libinit2.o(.ARM.Collect$$libinit$$00000004)
    __rt_lib_init_heap_1                     0x080002bf   Thumb Code     0  libinit2.o(.ARM.Collect$$libinit$$0000000A)
    __rt_lib_init_lc_common                  0x080002bf   Thumb Code     0  libinit2.o(.ARM.Collect$$libinit$$0000000F)
    __rt_lib_init_rand_1                     0x080002bf   Thumb Code     0  libinit2.o(.ARM.Collect$$libinit$$0000000E)
    __rt_lib_init_user_alloc_1               0x080002bf   Thumb Code     0  libinit2.o(.ARM.Collect$$libinit$$0000000C)
    __rt_lib_init_lc_collate_1               0x080002c5   Thumb Code     0  libinit2.o(.ARM.Collect$$libinit$$00000011)
    __rt_lib_init_lc_ctype_2                 0x080002c5   Thumb Code     0  libinit2.o(.ARM.Collect$$libinit$$00000012)
    __rt_lib_init_lc_ctype_1                 0x080002d1   Thumb Code     0  libinit2.o(.ARM.Collect$$libinit$$00000013)
    __rt_lib_init_lc_monetary_2              0x080002d1   Thumb Code     0  libinit2.o(.ARM.Collect$$libinit$$00000014)
    __rt_lib_init_lc_monetary_1              0x080002db   Thumb Code     0  libinit2.o(.ARM.Collect$$libinit$$00000015)
    __rt_lib_init_lc_numeric_2               0x080002db   Thumb Code     0  libinit2.o(.ARM.Collect$$libinit$$00000016)
    __rt_lib_init_alloca_1                   0x080002e5   Thumb Code     0  libinit2.o(.ARM.Collect$$libinit$$0000002E)
    __rt_lib_init_argv_1                     0x080002e5   Thumb Code     0  libinit2.o(.ARM.Collect$$libinit$$0000002C)
    __rt_lib_init_atexit_1                   0x080002e5   Thumb Code     0  libinit2.o(.ARM.Collect$$libinit$$0000001B)
    __rt_lib_init_clock_1                    0x080002e5   Thumb Code     0  libinit2.o(.ARM.Collect$$libinit$$00000021)
    __rt_lib_init_cpp_1                      0x080002e5   Thumb Code     0  libinit2.o(.ARM.Collect$$libinit$$00000032)
    __rt_lib_init_exceptions_1               0x080002e5   Thumb Code     0  libinit2.o(.ARM.Collect$$libinit$$00000030)
    __rt_lib_init_fp_trap_1                  0x080002e5   Thumb Code     0  libinit2.o(.ARM.Collect$$libinit$$0000001F)
    __rt_lib_init_getenv_1                   0x080002e5   Thumb Code     0  libinit2.o(.ARM.Collect$$libinit$$00000023)
    __rt_lib_init_lc_numeric_1               0x080002e5   Thumb Code     0  libinit2.o(.ARM.Collect$$libinit$$00000017)
    __rt_lib_init_lc_time_1                  0x080002e5   Thumb Code     0  libinit2.o(.ARM.Collect$$libinit$$00000019)
    __rt_lib_init_return                     0x080002e5   Thumb Code     0  libinit2.o(.ARM.Collect$$libinit$$00000033)
    __rt_lib_init_signal_1                   0x080002e5   Thumb Code     0  libinit2.o(.ARM.Collect$$libinit$$0000001D)
    __rt_lib_init_stdio_1                    0x080002e5   Thumb Code     0  libinit2.o(.ARM.Collect$$libinit$$00000025)
    __rt_lib_shutdown                        0x080002e7   Thumb Code     0  libshutdown.o(.ARM.Collect$$libshutdown$$00000000)
    __rt_lib_shutdown_cpp_1                  0x080002e9   Thumb Code     0  libshutdown2.o(.ARM.Collect$$libshutdown$$00000002)
    __rt_lib_shutdown_fp_trap_1              0x080002e9   Thumb Code     0  libshutdown2.o(.ARM.Collect$$libshutdown$$00000007)
    __rt_lib_shutdown_heap_1                 0x080002e9   Thumb Code     0  libshutdown2.o(.ARM.Collect$$libshutdown$$0000000F)
    __rt_lib_shutdown_return                 0x080002e9   Thumb Code     0  libshutdown2.o(.ARM.Collect$$libshutdown$$00000010)
    __rt_lib_shutdown_signal_1               0x080002e9   Thumb Code     0  libshutdown2.o(.ARM.Collect$$libshutdown$$0000000A)
    __rt_lib_shutdown_stdio_1                0x080002e9   Thumb Code     0  libshutdown2.o(.ARM.Collect$$libshutdown$$00000004)
    __rt_lib_shutdown_user_alloc_1           0x080002e9   Thumb Code     0  libshutdown2.o(.ARM.Collect$$libshutdown$$0000000C)
    __rt_entry                               0x080002eb   Thumb Code     0  __rtentry.o(.ARM.Collect$$rtentry$$00000000)
    __rt_entry_presh_1                       0x080002eb   Thumb Code     0  __rtentry2.o(.ARM.Collect$$rtentry$$00000002)
    __rt_entry_sh                            0x080002eb   Thumb Code     0  __rtentry4.o(.ARM.Collect$$rtentry$$00000004)
    __rt_entry_li                            0x080002f1   Thumb Code     0  __rtentry2.o(.ARM.Collect$$rtentry$$0000000A)
    __rt_entry_postsh_1                      0x080002f1   Thumb Code     0  __rtentry2.o(.ARM.Collect$$rtentry$$00000009)
    __rt_entry_main                          0x080002f5   Thumb Code     0  __rtentry2.o(.ARM.Collect$$rtentry$$0000000D)
    __rt_entry_postli_1                      0x080002f5   Thumb Code     0  __rtentry2.o(.ARM.Collect$$rtentry$$0000000C)
    __rt_exit                                0x080002fd   Thumb Code     0  rtexit.o(.ARM.Collect$$rtexit$$00000000)
    __rt_exit_ls                             0x080002ff   Thumb Code     0  rtexit2.o(.ARM.Collect$$rtexit$$00000003)
    __rt_exit_prels_1                        0x080002ff   Thumb Code     0  rtexit2.o(.ARM.Collect$$rtexit$$00000002)
    __rt_exit_exit                           0x08000303   Thumb Code     0  rtexit2.o(.ARM.Collect$$rtexit$$00000004)
    Reset_Handler                            0x08000309   Thumb Code    14  startup_stm32f429xx.o(.text)
    _maybe_terminate_alloc                   0x08000309   Thumb Code     0  maybetermalloc1.o(.emb_text)
    NMI_Handler                              0x08000317   Thumb Code     2  startup_stm32f429xx.o(.text)
    HardFault_Handler                        0x08000319   Thumb Code     2  startup_stm32f429xx.o(.text)
    MemManage_Handler                        0x0800031b   Thumb Code     2  startup_stm32f429xx.o(.text)
    BusFault_Handler                         0x0800031d   Thumb Code     2  startup_stm32f429xx.o(.text)
    UsageFault_Handler                       0x0800031f   Thumb Code     2  startup_stm32f429xx.o(.text)
    SVC_Handler                              0x08000321   Thumb Code     2  startup_stm32f429xx.o(.text)
    DebugMon_Handler                         0x08000323   Thumb Code     2  startup_stm32f429xx.o(.text)
    PendSV_Handler                           0x08000325   Thumb Code     2  startup_stm32f429xx.o(.text)
    SysTick_Handler                          0x08000327   Thumb Code     2  startup_stm32f429xx.o(.text)
    ADC_IRQHandler                           0x08000329   Thumb Code     0  startup_stm32f429xx.o(.text)
    CAN1_RX0_IRQHandler                      0x08000329   Thumb Code     0  startup_stm32f429xx.o(.text)
    CAN1_RX1_IRQHandler                      0x08000329   Thumb Code     0  startup_stm32f429xx.o(.text)
    CAN1_SCE_IRQHandler                      0x08000329   Thumb Code     0  startup_stm32f429xx.o(.text)
    CAN1_TX_IRQHandler                       0x08000329   Thumb Code     0  startup_stm32f429xx.o(.text)
    CAN2_RX0_IRQHandler                      0x08000329   Thumb Code     0  startup_stm32f429xx.o(.text)
    CAN2_RX1_IRQHandler                      0x08000329   Thumb Code     0  startup_stm32f429xx.o(.text)
    CAN2_SCE_IRQHandler                      0x08000329   Thumb Code     0  startup_stm32f429xx.o(.text)
    CAN2_TX_IRQHandler                       0x08000329   Thumb Code     0  startup_stm32f429xx.o(.text)
    DCMI_IRQHandler                          0x08000329   Thumb Code     0  startup_stm32f429xx.o(.text)
    DMA1_Stream0_IRQHandler                  0x08000329   Thumb Code     0  startup_stm32f429xx.o(.text)
    DMA1_Stream1_IRQHandler                  0x08000329   Thumb Code     0  startup_stm32f429xx.o(.text)
    DMA1_Stream2_IRQHandler                  0x08000329   Thumb Code     0  startup_stm32f429xx.o(.text)
    DMA1_Stream3_IRQHandler                  0x08000329   Thumb Code     0  startup_stm32f429xx.o(.text)
    DMA1_Stream4_IRQHandler                  0x08000329   Thumb Code     0  startup_stm32f429xx.o(.text)
    DMA1_Stream5_IRQHandler                  0x08000329   Thumb Code     0  startup_stm32f429xx.o(.text)
    DMA1_Stream6_IRQHandler                  0x08000329   Thumb Code     0  startup_stm32f429xx.o(.text)
    DMA1_Stream7_IRQHandler                  0x08000329   Thumb Code     0  startup_stm32f429xx.o(.text)
    DMA2D_IRQHandler                         0x08000329   Thumb Code     0  startup_stm32f429xx.o(.text)
    DMA2_Stream0_IRQHandler                  0x08000329   Thumb Code     0  startup_stm32f429xx.o(.text)
    DMA2_Stream1_IRQHandler                  0x08000329   Thumb Code     0  startup_stm32f429xx.o(.text)
    DMA2_Stream2_IRQHandler                  0x08000329   Thumb Code     0  startup_stm32f429xx.o(.text)
    DMA2_Stream3_IRQHandler                  0x08000329   Thumb Code     0  startup_stm32f429xx.o(.text)
    DMA2_Stream4_IRQHandler                  0x08000329   Thumb Code     0  startup_stm32f429xx.o(.text)
    DMA2_Stream5_IRQHandler                  0x08000329   Thumb Code     0  startup_stm32f429xx.o(.text)
    DMA2_Stream6_IRQHandler                  0x08000329   Thumb Code     0  startup_stm32f429xx.o(.text)
    DMA2_Stream7_IRQHandler                  0x08000329   Thumb Code     0  startup_stm32f429xx.o(.text)
    ETH_IRQHandler                           0x08000329   Thumb Code     0  startup_stm32f429xx.o(.text)
    ETH_WKUP_IRQHandler                      0x08000329   Thumb Code     0  startup_stm32f429xx.o(.text)
    EXTI0_IRQHandler                         0x08000329   Thumb Code     0  startup_stm32f429xx.o(.text)
    EXTI15_10_IRQHandler                     0x08000329   Thumb Code     0  startup_stm32f429xx.o(.text)
    EXTI1_IRQHandler                         0x08000329   Thumb Code     0  startup_stm32f429xx.o(.text)
    EXTI2_IRQHandler                         0x08000329   Thumb Code     0  startup_stm32f429xx.o(.text)
    EXTI3_IRQHandler                         0x08000329   Thumb Code     0  startup_stm32f429xx.o(.text)
    EXTI4_IRQHandler                         0x08000329   Thumb Code     0  startup_stm32f429xx.o(.text)
    EXTI9_5_IRQHandler                       0x08000329   Thumb Code     0  startup_stm32f429xx.o(.text)
    FLASH_IRQHandler                         0x08000329   Thumb Code     0  startup_stm32f429xx.o(.text)
    FMC_IRQHandler                           0x08000329   Thumb Code     0  startup_stm32f429xx.o(.text)
    FPU_IRQHandler                           0x08000329   Thumb Code     0  startup_stm32f429xx.o(.text)
    HASH_RNG_IRQHandler                      0x08000329   Thumb Code     0  startup_stm32f429xx.o(.text)
    I2C1_ER_IRQHandler                       0x08000329   Thumb Code     0  startup_stm32f429xx.o(.text)
    I2C1_EV_IRQHandler                       0x08000329   Thumb Code     0  startup_stm32f429xx.o(.text)
    I2C2_ER_IRQHandler                       0x08000329   Thumb Code     0  startup_stm32f429xx.o(.text)
    I2C2_EV_IRQHandler                       0x08000329   Thumb Code     0  startup_stm32f429xx.o(.text)
    I2C3_ER_IRQHandler                       0x08000329   Thumb Code     0  startup_stm32f429xx.o(.text)
    I2C3_EV_IRQHandler                       0x08000329   Thumb Code     0  startup_stm32f429xx.o(.text)
    LTDC_ER_IRQHandler                       0x08000329   Thumb Code     0  startup_stm32f429xx.o(.text)
    LTDC_IRQHandler                          0x08000329   Thumb Code     0  startup_stm32f429xx.o(.text)
    OTG_FS_IRQHandler                        0x08000329   Thumb Code     0  startup_stm32f429xx.o(.text)
    OTG_FS_WKUP_IRQHandler                   0x08000329   Thumb Code     0  startup_stm32f429xx.o(.text)
    OTG_HS_EP1_IN_IRQHandler                 0x08000329   Thumb Code     0  startup_stm32f429xx.o(.text)
    OTG_HS_EP1_OUT_IRQHandler                0x08000329   Thumb Code     0  startup_stm32f429xx.o(.text)
    OTG_HS_IRQHandler                        0x08000329   Thumb Code     0  startup_stm32f429xx.o(.text)
    OTG_HS_WKUP_IRQHandler                   0x08000329   Thumb Code     0  startup_stm32f429xx.o(.text)
    PVD_IRQHandler                           0x08000329   Thumb Code     0  startup_stm32f429xx.o(.text)
    RCC_IRQHandler                           0x08000329   Thumb Code     0  startup_stm32f429xx.o(.text)
    RTC_Alarm_IRQHandler                     0x08000329   Thumb Code     0  startup_stm32f429xx.o(.text)
    RTC_WKUP_IRQHandler                      0x08000329   Thumb Code     0  startup_stm32f429xx.o(.text)
    SAI1_IRQHandler                          0x08000329   Thumb Code     0  startup_stm32f429xx.o(.text)
    SDIO_IRQHandler                          0x08000329   Thumb Code     0  startup_stm32f429xx.o(.text)
    SPI1_IRQHandler                          0x08000329   Thumb Code     0  startup_stm32f429xx.o(.text)
    SPI2_IRQHandler                          0x08000329   Thumb Code     0  startup_stm32f429xx.o(.text)
    SPI3_IRQHandler                          0x08000329   Thumb Code     0  startup_stm32f429xx.o(.text)
    SPI4_IRQHandler                          0x08000329   Thumb Code     0  startup_stm32f429xx.o(.text)
    SPI5_IRQHandler                          0x08000329   Thumb Code     0  startup_stm32f429xx.o(.text)
    SPI6_IRQHandler                          0x08000329   Thumb Code     0  startup_stm32f429xx.o(.text)
    TAMP_STAMP_IRQHandler                    0x08000329   Thumb Code     0  startup_stm32f429xx.o(.text)
    TIM1_BRK_TIM9_IRQHandler                 0x08000329   Thumb Code     0  startup_stm32f429xx.o(.text)
    TIM1_CC_IRQHandler                       0x08000329   Thumb Code     0  startup_stm32f429xx.o(.text)
    TIM1_TRG_COM_TIM11_IRQHandler            0x08000329   Thumb Code     0  startup_stm32f429xx.o(.text)
    TIM1_UP_TIM10_IRQHandler                 0x08000329   Thumb Code     0  startup_stm32f429xx.o(.text)
    TIM2_IRQHandler                          0x08000329   Thumb Code     0  startup_stm32f429xx.o(.text)
    TIM4_IRQHandler                          0x08000329   Thumb Code     0  startup_stm32f429xx.o(.text)
    TIM6_DAC_IRQHandler                      0x08000329   Thumb Code     0  startup_stm32f429xx.o(.text)
    TIM8_BRK_TIM12_IRQHandler                0x08000329   Thumb Code     0  startup_stm32f429xx.o(.text)
    TIM8_CC_IRQHandler                       0x08000329   Thumb Code     0  startup_stm32f429xx.o(.text)
    TIM8_TRG_COM_TIM14_IRQHandler            0x08000329   Thumb Code     0  startup_stm32f429xx.o(.text)
    TIM8_UP_TIM13_IRQHandler                 0x08000329   Thumb Code     0  startup_stm32f429xx.o(.text)
    UART4_IRQHandler                         0x08000329   Thumb Code     0  startup_stm32f429xx.o(.text)
    UART5_IRQHandler                         0x08000329   Thumb Code     0  startup_stm32f429xx.o(.text)
    UART7_IRQHandler                         0x08000329   Thumb Code     0  startup_stm32f429xx.o(.text)
    UART8_IRQHandler                         0x08000329   Thumb Code     0  startup_stm32f429xx.o(.text)
    USART2_IRQHandler                        0x08000329   Thumb Code     0  startup_stm32f429xx.o(.text)
    USART6_IRQHandler                        0x08000329   Thumb Code     0  startup_stm32f429xx.o(.text)
    WWDG_IRQHandler                          0x08000329   Thumb Code     0  startup_stm32f429xx.o(.text)
    __user_initial_stackheap                 0x0800032d   Thumb Code     0  startup_stm32f429xx.o(.text)
    __use_no_semihosting                     0x0800034d   Thumb Code     2  use_no_semi_2.o(.text)
    malloc                                   0x0800034f   Thumb Code    94  h1_alloc.o(.text)
    free                                     0x080003ad   Thumb Code    78  h1_free.o(.text)
    realloc                                  0x080003fb   Thumb Code   184  h1_realloc.o(.text)
    vprintf                                  0x080004b5   Thumb Code     8  vprintf.o(.text)
    vsprintf                                 0x080004c1   Thumb Code    32  vsprintf.o(.text)
    vsnprintf                                0x080004e5   Thumb Code    48  vsnprintf.o(.text)
    __2printf                                0x08000519   Thumb Code    20  __2printf.o(.text)
    __2sprintf                               0x08000531   Thumb Code    38  __2sprintf.o(.text)
    _printf_pre_padding                      0x0800055d   Thumb Code    44  _printf_pad.o(.text)
    _printf_post_padding                     0x08000589   Thumb Code    34  _printf_pad.o(.text)
    _printf_str                              0x080005ab   Thumb Code    82  _printf_str.o(.text)
    _printf_int_dec                          0x080005fd   Thumb Code   104  _printf_dec.o(.text)
    _printf_longlong_hex                     0x08000675   Thumb Code    86  _printf_hex_int_ll_ptr.o(.text)
    _printf_int_hex                          0x080006cb   Thumb Code    28  _printf_hex_int_ll_ptr.o(.text)
    _printf_ll_hex                           0x080006e7   Thumb Code    12  _printf_hex_int_ll_ptr.o(.text)
    _printf_hex_ptr                          0x080006f3   Thumb Code    18  _printf_hex_int_ll_ptr.o(.text)
    __printf                                 0x08000709   Thumb Code   388  __printf_flags_ss_wp.o(.text)
    __0sscanf                                0x08000891   Thumb Code    52  __0sscanf.o(.text)
    localeconv                               0x080008cd   Thumb Code    12  localeconv.o(.text)
    strstr                                   0x080008dd   Thumb Code    36  strstr.o(.text)
    strcpy                                   0x08000901   Thumb Code    72  strcpy.o(.text)
    strlen                                   0x08000949   Thumb Code    62  strlen.o(.text)
    __aeabi_memcpy                           0x08000987   Thumb Code     0  rt_memcpy_v6.o(.text)
    __rt_memcpy                              0x08000987   Thumb Code   138  rt_memcpy_v6.o(.text)
    _memcpy_lastbytes                        0x080009ed   Thumb Code     0  rt_memcpy_v6.o(.text)
    __aeabi_memcpy4                          0x08000a11   Thumb Code     0  rt_memcpy_w.o(.text)
    __aeabi_memcpy8                          0x08000a11   Thumb Code     0  rt_memcpy_w.o(.text)
    __rt_memcpy_w                            0x08000a11   Thumb Code   100  rt_memcpy_w.o(.text)
    _memcpy_lastbytes_aligned                0x08000a59   Thumb Code     0  rt_memcpy_w.o(.text)
    __aeabi_memclr                           0x08000a75   Thumb Code     0  rt_memclr.o(.text)
    __rt_memclr                              0x08000a75   Thumb Code    68  rt_memclr.o(.text)
    _memset                                  0x08000a79   Thumb Code     0  rt_memclr.o(.text)
    __aeabi_memclr4                          0x08000ab9   Thumb Code     0  rt_memclr_w.o(.text)
    __aeabi_memclr8                          0x08000ab9   Thumb Code     0  rt_memclr_w.o(.text)
    __rt_memclr_w                            0x08000ab9   Thumb Code    78  rt_memclr_w.o(.text)
    _memset_w                                0x08000abd   Thumb Code     0  rt_memclr_w.o(.text)
    strcmp                                   0x08000b09   Thumb Code   128  strcmpv7m.o(.text)
    __use_two_region_memory                  0x08000b89   Thumb Code     2  heapauxi.o(.text)
    __rt_heap_escrow                         0x08000b8b   Thumb Code     2  heapauxi.o(.text)
    __rt_heap_expand                         0x08000b8d   Thumb Code     2  heapauxi.o(.text)
    __I$use$semihosting                      0x08000b8f   Thumb Code     0  use_no_semi.o(.text)
    __use_no_semihosting_swi                 0x08000b8f   Thumb Code     2  use_no_semi.o(.text)
    __rt_ctype_table                         0x08000b91   Thumb Code    16  rt_ctype_table.o(.text)
    __rt_heap_descriptor                     0x08000ba1   Thumb Code     8  rt_heap_descriptor_intlibspace.o(.text)
    __use_no_heap                            0x08000ba9   Thumb Code     2  hguard.o(.text)
    __heap$guard                             0x08000bab   Thumb Code     2  hguard.o(.text)
    _terminate_user_alloc                    0x08000bad   Thumb Code     2  init_alloc.o(.text)
    _init_user_alloc                         0x08000baf   Thumb Code     2  init_alloc.o(.text)
    __Heap_Full                              0x08000bb1   Thumb Code    34  init_alloc.o(.text)
    __Heap_Broken                            0x08000bd3   Thumb Code     6  init_alloc.o(.text)
    _init_alloc                              0x08000bd9   Thumb Code    94  init_alloc.o(.text)
    __Heap_Initialize                        0x08000c37   Thumb Code    10  h1_init.o(.text)
    __Heap_DescSize                          0x08000c41   Thumb Code     4  h1_init.o(.text)
    _printf_truncate_signed                  0x08000c45   Thumb Code    18  _printf_truncate.o(.text)
    _printf_truncate_unsigned                0x08000c57   Thumb Code    18  _printf_truncate.o(.text)
    _printf_int_common                       0x08000c69   Thumb Code   178  _printf_intcommon.o(.text)
    _printf_charcount                        0x08000d1b   Thumb Code    40  _printf_charcount.o(.text)
    __lib_sel_fp_printf                      0x08000d43   Thumb Code     2  _printf_fp_dec.o(.text)
    _printf_fp_dec_real                      0x08000ef1   Thumb Code   620  _printf_fp_dec.o(.text)
    _printf_char_common                      0x08001167   Thumb Code    32  _printf_char_common.o(.text)
    _sputc                                   0x0800118d   Thumb Code    10  _sputc.o(.text)
    _snputc                                  0x08001197   Thumb Code    16  _snputc.o(.text)
    _printf_cs_common                        0x080011a7   Thumb Code    20  _printf_char.o(.text)
    _printf_char                             0x080011bb   Thumb Code    16  _printf_char.o(.text)
    _printf_string                           0x080011cb   Thumb Code     8  _printf_char.o(.text)
    _printf_char_file                        0x080011d5   Thumb Code    32  _printf_char_file.o(.text)
    _printf_wctomb                           0x080011f9   Thumb Code   182  _printf_wctomb.o(.text)
    _printf_longlong_dec                     0x080012b5   Thumb Code   108  _printf_longlong_dec.o(.text)
    _printf_longlong_oct                     0x08001331   Thumb Code    68  _printf_oct_int_ll.o(.text)
    _printf_int_oct                          0x08001375   Thumb Code    24  _printf_oct_int_ll.o(.text)
    _printf_ll_oct                           0x0800138d   Thumb Code    12  _printf_oct_int_ll.o(.text)
    _scanf_really_real                       0x0800159d   Thumb Code   668  scanf_fp.o(.text)
    __vfscanf_char                           0x08001851   Thumb Code    24  scanf_char.o(.text)
    _sgetc                                   0x08001871   Thumb Code    30  _sgetc.o(.text)
    _sbackspace                              0x0800188f   Thumb Code    34  _sgetc.o(.text)
    _get_lconv                               0x080018b1   Thumb Code   114  _lconv.o(.text)
    __user_libspace                          0x08001925   Thumb Code     8  libspace.o(.text)
    __user_perproc_libspace                  0x08001925   Thumb Code     0  libspace.o(.text)
    __user_perthread_libspace                0x08001925   Thumb Code     0  libspace.o(.text)
    __rt_locale                              0x0800192d   Thumb Code     8  rt_locale_intlibspace.o(.text)
    __aeabi_errno_addr                       0x08001935   Thumb Code     8  rt_errno_addr_intlibspace.o(.text)
    __errno$intlibspace                      0x08001935   Thumb Code     0  rt_errno_addr_intlibspace.o(.text)
    __rt_errno_addr$intlibspace              0x08001935   Thumb Code     0  rt_errno_addr_intlibspace.o(.text)
    __Heap_ProvideMemory                     0x0800193d   Thumb Code    52  h1_extend.o(.text)
    _ll_udiv10                               0x08001971   Thumb Code   138  lludiv10.o(.text)
    isspace                                  0x080019fb   Thumb Code    18  isspace.o(.text)
    _printf_fp_hex_real                      0x08001a0d   Thumb Code   756  _printf_fp_hex.o(.text)
    _printf_fp_infnan                        0x08001d09   Thumb Code   112  _printf_fp_infnan.o(.text)
    _printf_lcs_common                       0x08001d89   Thumb Code    20  _printf_wchar.o(.text)
    _printf_wchar                            0x08001d9d   Thumb Code    16  _printf_wchar.o(.text)
    _printf_wstring                          0x08001dad   Thumb Code     8  _printf_wchar.o(.text)
    __vfscanf                                0x08001db5   Thumb Code   878  _scanf.o(.text)
    _btod_etento                             0x08002129   Thumb Code   216  bigflt0.o(.text)
    ferror                                   0x08002205   Thumb Code     8  ferror.o(.text)
    _wcrtomb                                 0x0800220d   Thumb Code    64  _wcrtomb.o(.text)
    __rt_SIGRTMEM                            0x0800224d   Thumb Code    14  defsig_rtmem_outer.o(.text)
    __user_setup_stackheap                   0x0800225b   Thumb Code    74  sys_stackheap_outer.o(.text)
    __read_errno                             0x080022a5   Thumb Code    10  _rserrno.o(.text)
    __set_errno                              0x080022af   Thumb Code    12  _rserrno.o(.text)
    _scanf_really_hex_real                   0x080022bd   Thumb Code   786  scanf_hexfp.o(.text)
    _scanf_really_infnan                     0x080025dd   Thumb Code   292  scanf_infnan.o(.text)
    exit                                     0x08002711   Thumb Code    18  exit.o(.text)
    __sig_exit                               0x08002723   Thumb Code    10  defsig_exit.o(.text)
    __rt_SIGRTMEM_inner                      0x0800272d   Thumb Code    22  defsig_rtmem_inner.o(.text)
    __aeabi_llsl                             0x0800277d   Thumb Code     0  llshl.o(.text)
    _ll_shift_l                              0x0800277d   Thumb Code    38  llshl.o(.text)
    _chval                                   0x080027a3   Thumb Code    28  _chval.o(.text)
    __default_signal_display                 0x080027bf   Thumb Code    50  defsig_general.o(.text)
    _btod_d2e                                0x080027f1   Thumb Code    62  btod.o(CL$$btod_d2e)
    _d2e_denorm_low                          0x0800282f   Thumb Code    70  btod.o(CL$$btod_d2e_denorm_low)
    _d2e_norm_op1                            0x08002875   Thumb Code    96  btod.o(CL$$btod_d2e_norm_op1)
    __btod_div_common                        0x080028d5   Thumb Code   696  btod.o(CL$$btod_div_common)
    _e2d                                     0x08002c0d   Thumb Code    80  btod.o(CL$$btod_e2d)
    _e2e                                     0x08002c61   Thumb Code   198  btod.o(CL$$btod_e2e)
    _btod_ediv                               0x08002d27   Thumb Code    40  btod.o(CL$$btod_ediv)
    _btod_edivd                              0x08002d4f   Thumb Code    40  btod.o(CL$$btod_edivd)
    _btod_emul                               0x08002d77   Thumb Code    40  btod.o(CL$$btod_emul)
    _btod_emuld                              0x08002d9f   Thumb Code    40  btod.o(CL$$btod_emuld)
    __btod_mult_common                       0x08002dc7   Thumb Code   580  btod.o(CL$$btod_mult_common)
    AtoI                                     0x0800300b   Thumb Code   138  wayz.o(i.AtoI)
    GPIO_AF_Set                              0x08003095   Thumb Code    64  sys.o(i.GPIO_AF_Set)
    GPIO_Set                                 0x080030d5   Thumb Code   262  sys.o(i.GPIO_Set)
    HAL_Snprintf                             0x080031e1   Thumb Code    38  wayz.o(i.HAL_Snprintf)
    LCD_Clear                                0x08003209   Thumb Code    58  lcd.o(i.LCD_Clear)
    LCD_Display_Dir                          0x08003251   Thumb Code   376  lcd.o(i.LCD_Display_Dir)
    LCD_DrawLine                             0x080033d1   Thumb Code   176  lcd.o(i.LCD_DrawLine)
    LCD_DrawPoint                            0x08003481   Thumb Code    48  lcd.o(i.LCD_DrawPoint)
    LCD_Fast_DrawPoint                       0x080034bd   Thumb Code   278  lcd.o(i.LCD_Fast_DrawPoint)
    LCD_Init                                 0x080035e1   Thumb Code  9604  lcd.o(i.LCD_Init)
    LCD_Pow                                  0x08005b71   Thumb Code    22  lcd.o(i.LCD_Pow)
    LCD_RD_DATA                              0x08005b89   Thumb Code    14  lcd.o(i.LCD_RD_DATA)
    LCD_SSD_BackLightSet                     0x08005b9d   Thumb Code    88  lcd.o(i.LCD_SSD_BackLightSet)
    LCD_Scan_Dir                             0x08005bfd   Thumb Code   624  lcd.o(i.LCD_Scan_Dir)
    LCD_SetCursor                            0x08005e71   Thumb Code   306  lcd.o(i.LCD_SetCursor)
    LCD_ShowChar                             0x08005fa9   Thumb Code   288  lcd.o(i.LCD_ShowChar)
    LCD_ShowNum                              0x080060e5   Thumb Code   148  lcd.o(i.LCD_ShowNum)
    LCD_ShowString                           0x08006179   Thumb Code   102  lcd.o(i.LCD_ShowString)
    LCD_WR_DATA                              0x080061e1   Thumb Code    18  lcd.o(i.LCD_WR_DATA)
    LCD_WR_REG                               0x080061f9   Thumb Code    18  lcd.o(i.LCD_WR_REG)
    LCD_WriteRAM_Prepare                     0x08006211   Thumb Code    10  lcd.o(i.LCD_WriteRAM_Prepare)
    LCD_WriteReg                             0x08006225   Thumb Code    10  lcd.o(i.LCD_WriteReg)
    LTDC_Clear                               0x08006235   Thumb Code    32  ltdc.o(i.LTDC_Clear)
    LTDC_Clk_Set                             0x08006259   Thumb Code   148  ltdc.o(i.LTDC_Clk_Set)
    LTDC_Display_Dir                         0x080062f1   Thumb Code    40  ltdc.o(i.LTDC_Display_Dir)
    LTDC_Draw_Point                          0x0800631d   Thumb Code    86  ltdc.o(i.LTDC_Draw_Point)
    LTDC_Fill                                0x0800637d   Thumb Code   312  ltdc.o(i.LTDC_Fill)
    LTDC_Init                                0x080064c5   Thumb Code   860  ltdc.o(i.LTDC_Init)
    LTDC_Layer_Parameter_Config              0x08006851   Thumb Code   132  ltdc.o(i.LTDC_Layer_Parameter_Config)
    LTDC_Layer_Switch                        0x080068d9   Thumb Code    90  ltdc.o(i.LTDC_Layer_Switch)
    LTDC_Layer_Window_Config                 0x08006939   Thumb Code   304  ltdc.o(i.LTDC_Layer_Window_Config)
    LTDC_PanelID_Read                        0x08006a71   Thumb Code   136  ltdc.o(i.LTDC_PanelID_Read)
    LTDC_Select_Layer                        0x08006b11   Thumb Code     6  ltdc.o(i.LTDC_Select_Layer)
    LTDC_Switch                              0x08006b1d   Thumb Code    34  ltdc.o(i.LTDC_Switch)
    MY_NVIC_Init                             0x08006b45   Thumb Code   116  sys.o(i.MY_NVIC_Init)
    MY_NVIC_PriorityGroupConfig              0x08006bbd   Thumb Code    32  sys.o(i.MY_NVIC_PriorityGroupConfig)
    MY_NVIC_SetVectorTable                   0x08006be5   Thumb Code    12  sys.o(i.MY_NVIC_SetVectorTable)
    SDRAM_Init                               0x08006bf5   Thumb Code   688  sdram.o(i.SDRAM_Init)
    SDRAM_Send_Cmd                           0x08006ec1   Thumb Code    66  sdram.o(i.SDRAM_Send_Cmd)
    Stm32_Clock_Init                         0x08006f09   Thumb Code    90  sys.o(i.Stm32_Clock_Init)
    Sys_Clock_Set                            0x08006f71   Thumb Code   254  sys.o(i.Sys_Clock_Set)
    TIM3_IRQHandler                          0x0800707d   Thumb Code    40  timer.o(i.TIM3_IRQHandler)
    TIM5_IRQHandler                          0x080070ad   Thumb Code   220  timer.o(i.TIM5_IRQHandler)
    TIM7_IRQHandler                          0x08007195   Thumb Code    52  timer.o(i.TIM7_IRQHandler)
    TIM7_Int_Init                            0x080071d1   Thumb Code    80  timer.o(i.TIM7_Int_Init)
    USART1_IRQHandler                        0x08007229   Thumb Code   122  usart.o(i.USART1_IRQHandler)
    USART3_IRQHandler                        0x080072b1   Thumb Code    96  usart3.o(i.USART3_IRQHandler)
    __ARM_fpclassify                         0x08007321   Thumb Code    48  fpclassify.o(i.__ARM_fpclassify)
    __hardfp_ldexp                           0x08007351   Thumb Code   200  ldexp.o(i.__hardfp_ldexp)
    __mathlib_dbl_overflow                   0x08007421   Thumb Code    24  dunder.o(i.__mathlib_dbl_overflow)
    __mathlib_dbl_underflow                  0x08007441   Thumb Code    24  dunder.o(i.__mathlib_dbl_underflow)
    __mathlib_narrow                         0x08007461   Thumb Code   166  narrow.o(i.__mathlib_narrow)
    __support_ldexp                          0x08007519   Thumb Code    20  ldexp.o(i.__support_ldexp)
    _is_digit                                0x0800752d   Thumb Code    14  __printf_wp.o(i._is_digit)
    _sys_exit                                0x0800753b   Thumb Code     4  usart.o(i._sys_exit)
    _ttywrch                                 0x0800753f   Thumb Code     4  usart.o(i._ttywrch)
    asset2Json                               0x08007545   Thumb Code   148  wayz.o(i.asset2Json)
    atk_8266_bridge                          0x0800761d   Thumb Code   164  wayz.o(i.atk_8266_bridge)
    atk_8266_check_cmd                       0x080076e1   Thumb Code    66  wayz.o(i.atk_8266_check_cmd)
    atk_8266_quit_trans                      0x08007755   Thumb Code   100  wayz.o(i.atk_8266_quit_trans)
    atk_8266_send_cmd                        0x080077c5   Thumb Code   156  wayz.o(i.atk_8266_send_cmd)
    cJSON_AddItemToArray                     0x08007909   Thumb Code    44  cjson.o(i.cJSON_AddItemToArray)
    cJSON_AddItemToObject                    0x08007935   Thumb Code    42  cjson.o(i.cJSON_AddItemToObject)
    cJSON_AddItemToObjectCS                  0x08007965   Thumb Code    54  cjson.o(i.cJSON_AddItemToObjectCS)
    cJSON_CreateArray                        0x080079a1   Thumb Code    20  cjson.o(i.cJSON_CreateArray)
    cJSON_CreateBool                         0x080079b9   Thumb Code    28  cjson.o(i.cJSON_CreateBool)
    cJSON_CreateNumber                       0x080079d9   Thumb Code   102  cjson.o(i.cJSON_CreateNumber)
    cJSON_CreateObject                       0x08007a55   Thumb Code    20  cjson.o(i.cJSON_CreateObject)
    cJSON_CreateString                       0x08007a6d   Thumb Code    46  cjson.o(i.cJSON_CreateString)
    cJSON_Delete                             0x08007aa1   Thumb Code    84  cjson.o(i.cJSON_Delete)
    cJSON_Print                              0x08007b15   Thumb Code    16  cjson.o(i.cJSON_Print)
    cJSON_PrintUnformatted                   0x08007b29   Thumb Code    16  cjson.o(i.cJSON_PrintUnformatted)
    connectWifi                              0x08007b75   Thumb Code   282  wayz.o(i.connectWifi)
    delay_init                               0x08007d55   Thumb Code    46  delay.o(i.delay_init)
    delay_ms                                 0x08007d8d   Thumb Code    56  delay.o(i.delay_ms)
    delay_us                                 0x08007dc5   Thumb Code    56  delay.o(i.delay_us)
    delay_xms                                0x08007e01   Thumb Code    56  delay.o(i.delay_xms)
    fputc                                    0x08007ee9   Thumb Code    22  usart.o(i.fputc)
    frexp                                    0x08007f09   Thumb Code   118  frexp.o(i.frexp)
    getDEVID                                 0x08007f95   Thumb Code     4  wayz.o(i.getDEVID)
    getInfoFromRaw                           0x08007f9d   Thumb Code   448  wayz.o(i.getInfoFromRaw)
    getMAC                                   0x08008215   Thumb Code    78  wayz.o(i.getMAC)
    getMODEL                                 0x08008295   Thumb Code     4  wayz.o(i.getMODEL)
    getSOFTV                                 0x0800829d   Thumb Code     4  wayz.o(i.getSOFTV)
    getUUID                                  0x080082a5   Thumb Code     4  wayz.o(i.getUUID)
    getWifiCount                             0x080082ad   Thumb Code    14  wayz.o(i.getWifiCount)
    gnss2Json                                0x080082d5   Thumb Code   388  wayz.o(i.gnss2Json)
    initESP8266                              0x080084c1   Thumb Code    70  wayz.o(i.initESP8266)
    location2Json                            0x08008539   Thumb Code    62  wayz.o(i.location2Json)
    logd                                     0x080085d9   Thumb Code    38  zlog.o(i.logd)
    loge                                     0x08008609   Thumb Code    38  zlog.o(i.loge)
    logi                                     0x08008639   Thumb Code    38  zlog.o(i.logi)
    mMemset                                  0x08008669   Thumb Code    20  cjson.o(i.mMemset)
    main                                     0x0800867d   Thumb Code   210  main.o(i.main)
    os2Json                                  0x080087e1   Thumb Code    56  wayz.o(i.os2Json)
    printOutInfo                             0x080088d1   Thumb Code   328  wayz.o(i.printOutInfo)
    strCount                                 0x08008fe9   Thumb Code    48  wayz.o(i.strCount)
    track2CJson                              0x08009021   Thumb Code   170  wayz.o(i.track2CJson)
    track2JsonString                         0x0800913d   Thumb Code    64  wayz.o(i.track2JsonString)
    u3_printf                                0x0800919d   Thumb Code    72  usart3.o(i.u3_printf)
    uart_init                                0x080091ed   Thumb Code   240  usart.o(i.uart_init)
    usart3_init                              0x08009311   Thumb Code   262  usart3.o(i.usart3_init)
    wifi2Json                                0x08009431   Thumb Code   412  wayz.o(i.wifi2Json)
    wifiscan                                 0x08009645   Thumb Code   920  wayz.o(i.wifiscan)
    _get_lc_ctype                            0x08009ca1   Thumb Code    44  lc_ctype_c.o(locale$$code)
    _get_lc_monetary                         0x08009ccd   Thumb Code    44  lc_monetary_c.o(locale$$code)
    _get_lc_numeric                          0x08009cf9   Thumb Code    44  lc_numeric_c.o(locale$$code)
    __aeabi_d2f                              0x08009d25   Thumb Code     0  d2f.o(x$fpl$d2f)
    _d2f                                     0x08009d25   Thumb Code    98  d2f.o(x$fpl$d2f)
    __fpl_dcheck_NaN1                        0x08009d89   Thumb Code    10  dcheck1.o(x$fpl$dcheck1)
    __fpl_dcmp_Inf                           0x08009d99   Thumb Code    24  dcmpi.o(x$fpl$dcmpinf)
    __aeabi_cdcmpeq                          0x08009db1   Thumb Code     0  deqf.o(x$fpl$deqf)
    _dcmpeq                                  0x08009db1   Thumb Code   120  deqf.o(x$fpl$deqf)
    __aeabi_d2iz                             0x08009e29   Thumb Code     0  dfix.o(x$fpl$dfix)
    _dfix                                    0x08009e29   Thumb Code    94  dfix.o(x$fpl$dfix)
    __aeabi_d2uiz                            0x08009e89   Thumb Code     0  dfixu.o(x$fpl$dfixu)
    _dfixu                                   0x08009e89   Thumb Code    90  dfixu.o(x$fpl$dfixu)
    __aeabi_i2d                              0x08009ee3   Thumb Code     0  dflt_clz.o(x$fpl$dflt)
    _dflt                                    0x08009ee3   Thumb Code    46  dflt_clz.o(x$fpl$dflt)
    __aeabi_l2d                              0x08009f11   Thumb Code     0  dfltll_clz.o(x$fpl$dfltll)
    _ll_sto_d                                0x08009f11   Thumb Code   162  dfltll_clz.o(x$fpl$dfltll)
    __aeabi_ui2d                             0x08009fb3   Thumb Code     0  dflt_clz.o(x$fpl$dfltu)
    _dfltu                                   0x08009fb3   Thumb Code    38  dflt_clz.o(x$fpl$dfltu)
    __aeabi_cdcmple                          0x08009fd9   Thumb Code     0  dleqf.o(x$fpl$dleqf)
    _dcmple                                  0x08009fd9   Thumb Code   120  dleqf.o(x$fpl$dleqf)
    __fpl_dcmple_InfNaN                      0x0800a03b   Thumb Code     0  dleqf.o(x$fpl$dleqf)
    __aeabi_dmul                             0x0800a051   Thumb Code     0  dmul.o(x$fpl$dmul)
    _dmul                                    0x0800a051   Thumb Code   332  dmul.o(x$fpl$dmul)
    __fpl_dnaninf                            0x0800a1a5   Thumb Code   156  dnaninf.o(x$fpl$dnaninf)
    __fpl_dretinf                            0x0800a241   Thumb Code    12  dretinf.o(x$fpl$dretinf)
    __aeabi_cdrcmple                         0x0800a24d   Thumb Code     0  drleqf.o(x$fpl$drleqf)
    _drcmple                                 0x0800a24d   Thumb Code   108  drleqf.o(x$fpl$drleqf)
    __aeabi_f2d                              0x0800a2b9   Thumb Code     0  f2d.o(x$fpl$f2d)
    _f2d                                     0x0800a2b9   Thumb Code    86  f2d.o(x$fpl$f2d)
    __fpl_fnaninf                            0x0800a30f   Thumb Code   140  fnaninf.o(x$fpl$fnaninf)
    _fp_init                                 0x0800a39b   Thumb Code    10  fpinit.o(x$fpl$fpinit)
    __fplib_config_fpu_vfp                   0x0800a3a3   Thumb Code     0  fpinit.o(x$fpl$fpinit)
    __fplib_config_pureend_doubles           0x0800a3a3   Thumb Code     0  fpinit.o(x$fpl$fpinit)
    __fpl_fretinf                            0x0800a3a5   Thumb Code    10  fretinf.o(x$fpl$fretinf)
    _printf_fp_dec                           0x0800a3af   Thumb Code     4  printf1.o(x$fpl$printf1)
    _printf_fp_hex                           0x0800a3b3   Thumb Code     4  printf2.o(x$fpl$printf2)
    __fpl_return_NaN                         0x0800a3b7   Thumb Code   100  retnan.o(x$fpl$retnan)
    __ARM_scalbn                             0x0800a41b   Thumb Code    92  scalbn.o(x$fpl$scalbn)
    _scanf_real                              0x0800a477   Thumb Code     4  scanf1.o(x$fpl$scanf1)
    _scanf_hex_real                          0x0800a47b   Thumb Code     4  scanf2.o(x$fpl$scanf2)
    _scanf_infnan                            0x0800a47f   Thumb Code     4  scanf2.o(x$fpl$scanf2)
    __fpl_cmpreturn                          0x0800a483   Thumb Code    48  trapv.o(x$fpl$trapveneer)
    __I$use$fp                               0x0800a4b2   Number         0  usenofp.o(x$fpl$usenofp)
    asc2_1206                                0x0800a4b2   Data        1140  lcd.o(.constdata)
    asc2_1608                                0x0800a926   Data        1520  lcd.o(.constdata)
    asc2_2412                                0x0800af16   Data        3420  lcd.o(.constdata)
    asc2_3216                                0x0800bc72   Data       12160  lcd.o(.constdata)
    Region$$Table$$Base                      0x0800edcc   Number         0  anon$$obj.o(Region$$Table)
    Region$$Table$$Limit                     0x0800edec   Number         0  anon$$obj.o(Region$$Table)
    __aeabi_HUGE_VAL                         0x0800edec   Data           0  fpconst.o(c$$dinf)
    __aeabi_HUGE_VALL                        0x0800edec   Data           0  fpconst.o(c$$dinf)
    __aeabi_INFINITY                         0x0800edec   Data           0  fpconst.o(c$$dinf)
    __dInf                                   0x0800edec   Data           0  fpconst.o(c$$dinf)
    __huge_val                               0x0800edec   Data           0  fpconst.o(c$$dinf)
    __ctype                                  0x0800ee01   Data           0  lc_ctype_c.o(locale$$data)
    __stdout                                 0x20000000   Data           4  usart.o(.data)
    USART_RX_STA                             0x20000004   Data           2  usart.o(.data)
    wificount                                0x2000000c   Data           4  wayz.o(.data)
    wifi_m                                   0x20000010   Data           4  wayz.o(.data)
    cipsend                                  0x20000014   Data          20  wayz.o(.data)
    POINT_COLOR                              0x20000064   Data           4  lcd.o(.data)
    BACK_COLOR                               0x20000068   Data           4  lcd.o(.data)
    ltdc_framebuf                            0x2000006c   Data           8  ltdc.o(.data)
    USART3_RX_STA                            0x20000074   Data           2  usart3.o(.data)
    TIM5CH1_CAPTURE_STA                      0x20000078   Data           1  timer.o(.data)
    TIM5CH1_CAPTURE_VAL                      0x2000007c   Data           4  timer.o(.data)
    USART_RX_BUF                             0x20000080   Data        5000  usart.o(.bss)
    wifi_x                                   0x20001408   Data        2640  wayz.o(.bss)
    post_content                             0x20001e58   Data         210  wayz.o(.bss)
    senddata                                 0x20001f2a   Data        4000  wayz.o(.bss)
    lcddev                                   0x20002f6a   Data          14  lcd.o(.bss)
    lcdltdc                                  0x20002f78   Data          32  ltdc.o(.bss)
    USART3_TX_BUF                            0x20002f98   Data        4000  usart3.o(.bss)
    USART3_RX_BUF                            0x20003f38   Data        2000  usart3.o(.bss)
    __libspace_start                         0x20004738   Data          96  libspace.o(.bss)
    __temporary_stack_top$libspace           0x20004798   Data           0  libspace.o(.bss)
    ltdc_lcd_framebuf                        0xc0000000   Data       2048000  ltdc.o(.ARM.__AT_0xC0000000)



==============================================================================

Memory Map of the image

  Image Entry point : 0x080001ad

  Load Region LR_IROM1 (Base: 0x08000000, Size: 0x0000efd8, Max: 0x00100000, ABSOLUTE)

    Execution Region ER_IROM1 (Base: 0x08000000, Size: 0x0000ef58, Max: 0x00100000, ABSOLUTE)

    Base Addr    Size         Type   Attr      Idx    E Section Name        Object

    0x08000000   0x000001ac   Data   RO            3    RESET               startup_stm32f429xx.o
    0x080001ac   0x00000008   Code   RO          355  * !!!main             c_w.l(__main.o)
    0x080001b4   0x00000034   Code   RO          651    !!!scatter          c_w.l(__scatter.o)
    0x080001e8   0x0000001a   Code   RO          652    !!handler_copy      c_w.l(__scatter_copy.o)
    0x08000202   0x00000002   PAD
    0x08000204   0x0000001c   Code   RO          653    !!handler_zi        c_w.l(__scatter_zi.o)
    0x08000220   0x00000000   Code   RO          341    .ARM.Collect$$_printf_percent$$00000000  c_w.l(_printf_percent.o)
    0x08000220   0x00000006   Code   RO          408    .ARM.Collect$$_printf_percent$$00000001  c_w.l(_printf_n.o)
    0x08000226   0x00000006   Code   RO          409    .ARM.Collect$$_printf_percent$$00000002  c_w.l(_printf_p.o)
    0x0800022c   0x00000006   Code   RO          412    .ARM.Collect$$_printf_percent$$00000003  c_w.l(_printf_f.o)
    0x08000232   0x00000006   Code   RO          413    .ARM.Collect$$_printf_percent$$00000004  c_w.l(_printf_e.o)
    0x08000238   0x00000006   Code   RO          340    .ARM.Collect$$_printf_percent$$00000005  c_w.l(_printf_g.o)
    0x0800023e   0x00000006   Code   RO          414    .ARM.Collect$$_printf_percent$$00000006  c_w.l(_printf_a.o)
    0x08000244   0x0000000a   Code   RO          419    .ARM.Collect$$_printf_percent$$00000007  c_w.l(_printf_ll.o)
    0x0800024e   0x00000006   Code   RO          338    .ARM.Collect$$_printf_percent$$00000008  c_w.l(_printf_i.o)
    0x08000254   0x00000006   Code   RO          339    .ARM.Collect$$_printf_percent$$00000009  c_w.l(_printf_d.o)
    0x0800025a   0x00000006   Code   RO          411    .ARM.Collect$$_printf_percent$$0000000A  c_w.l(_printf_u.o)
    0x08000260   0x00000006   Code   RO          410    .ARM.Collect$$_printf_percent$$0000000B  c_w.l(_printf_o.o)
    0x08000266   0x00000006   Code   RO          337    .ARM.Collect$$_printf_percent$$0000000C  c_w.l(_printf_x.o)
    0x0800026c   0x00000006   Code   RO          416    .ARM.Collect$$_printf_percent$$0000000D  c_w.l(_printf_lli.o)
    0x08000272   0x00000006   Code   RO          417    .ARM.Collect$$_printf_percent$$0000000E  c_w.l(_printf_lld.o)
    0x08000278   0x00000006   Code   RO          418    .ARM.Collect$$_printf_percent$$0000000F  c_w.l(_printf_llu.o)
    0x0800027e   0x00000006   Code   RO          423    .ARM.Collect$$_printf_percent$$00000010  c_w.l(_printf_llo.o)
    0x08000284   0x00000006   Code   RO          424    .ARM.Collect$$_printf_percent$$00000011  c_w.l(_printf_llx.o)
    0x0800028a   0x0000000a   Code   RO          420    .ARM.Collect$$_printf_percent$$00000012  c_w.l(_printf_l.o)
    0x08000294   0x00000006   Code   RO          407    .ARM.Collect$$_printf_percent$$00000013  c_w.l(_printf_c.o)
    0x0800029a   0x00000006   Code   RO          336    .ARM.Collect$$_printf_percent$$00000014  c_w.l(_printf_s.o)
    0x080002a0   0x00000006   Code   RO          421    .ARM.Collect$$_printf_percent$$00000015  c_w.l(_printf_lc.o)
    0x080002a6   0x00000006   Code   RO          422    .ARM.Collect$$_printf_percent$$00000016  c_w.l(_printf_ls.o)
    0x080002ac   0x00000004   Code   RO          415    .ARM.Collect$$_printf_percent$$00000017  c_w.l(_printf_percent_end.o)
    0x080002b0   0x00000002   Code   RO          576    .ARM.Collect$$libinit$$00000000  c_w.l(libinit.o)
    0x080002b2   0x00000004   Code   RO          431    .ARM.Collect$$libinit$$00000001  c_w.l(libinit2.o)
    0x080002b6   0x00000000   Code   RO          434    .ARM.Collect$$libinit$$00000004  c_w.l(libinit2.o)
    0x080002b6   0x00000008   Code   RO          435    .ARM.Collect$$libinit$$00000005  c_w.l(libinit2.o)
    0x080002be   0x00000000   Code   RO          437    .ARM.Collect$$libinit$$0000000A  c_w.l(libinit2.o)
    0x080002be   0x00000000   Code   RO          439    .ARM.Collect$$libinit$$0000000C  c_w.l(libinit2.o)
    0x080002be   0x00000000   Code   RO          441    .ARM.Collect$$libinit$$0000000E  c_w.l(libinit2.o)
    0x080002be   0x00000006   Code   RO          442    .ARM.Collect$$libinit$$0000000F  c_w.l(libinit2.o)
    0x080002c4   0x00000000   Code   RO          444    .ARM.Collect$$libinit$$00000011  c_w.l(libinit2.o)
    0x080002c4   0x0000000c   Code   RO          445    .ARM.Collect$$libinit$$00000012  c_w.l(libinit2.o)
    0x080002d0   0x00000000   Code   RO          446    .ARM.Collect$$libinit$$00000013  c_w.l(libinit2.o)
    0x080002d0   0x0000000a   Code   RO          447    .ARM.Collect$$libinit$$00000014  c_w.l(libinit2.o)
    0x080002da   0x00000000   Code   RO          448    .ARM.Collect$$libinit$$00000015  c_w.l(libinit2.o)
    0x080002da   0x0000000a   Code   RO          449    .ARM.Collect$$libinit$$00000016  c_w.l(libinit2.o)
    0x080002e4   0x00000000   Code   RO          450    .ARM.Collect$$libinit$$00000017  c_w.l(libinit2.o)
    0x080002e4   0x00000000   Code   RO          452    .ARM.Collect$$libinit$$00000019  c_w.l(libinit2.o)
    0x080002e4   0x00000000   Code   RO          454    .ARM.Collect$$libinit$$0000001B  c_w.l(libinit2.o)
    0x080002e4   0x00000000   Code   RO          456    .ARM.Collect$$libinit$$0000001D  c_w.l(libinit2.o)
    0x080002e4   0x00000000   Code   RO          458    .ARM.Collect$$libinit$$0000001F  c_w.l(libinit2.o)
    0x080002e4   0x00000000   Code   RO          460    .ARM.Collect$$libinit$$00000021  c_w.l(libinit2.o)
    0x080002e4   0x00000000   Code   RO          462    .ARM.Collect$$libinit$$00000023  c_w.l(libinit2.o)
    0x080002e4   0x00000000   Code   RO          464    .ARM.Collect$$libinit$$00000025  c_w.l(libinit2.o)
    0x080002e4   0x00000000   Code   RO          468    .ARM.Collect$$libinit$$0000002C  c_w.l(libinit2.o)
    0x080002e4   0x00000000   Code   RO          470    .ARM.Collect$$libinit$$0000002E  c_w.l(libinit2.o)
    0x080002e4   0x00000000   Code   RO          472    .ARM.Collect$$libinit$$00000030  c_w.l(libinit2.o)
    0x080002e4   0x00000000   Code   RO          474    .ARM.Collect$$libinit$$00000032  c_w.l(libinit2.o)
    0x080002e4   0x00000002   Code   RO          475    .ARM.Collect$$libinit$$00000033  c_w.l(libinit2.o)
    0x080002e6   0x00000002   Code   RO          640    .ARM.Collect$$libshutdown$$00000000  c_w.l(libshutdown.o)
    0x080002e8   0x00000000   Code   RO          590    .ARM.Collect$$libshutdown$$00000002  c_w.l(libshutdown2.o)
    0x080002e8   0x00000000   Code   RO          592    .ARM.Collect$$libshutdown$$00000004  c_w.l(libshutdown2.o)
    0x080002e8   0x00000000   Code   RO          595    .ARM.Collect$$libshutdown$$00000007  c_w.l(libshutdown2.o)
    0x080002e8   0x00000000   Code   RO          598    .ARM.Collect$$libshutdown$$0000000A  c_w.l(libshutdown2.o)
    0x080002e8   0x00000000   Code   RO          600    .ARM.Collect$$libshutdown$$0000000C  c_w.l(libshutdown2.o)
    0x080002e8   0x00000000   Code   RO          603    .ARM.Collect$$libshutdown$$0000000F  c_w.l(libshutdown2.o)
    0x080002e8   0x00000002   Code   RO          604    .ARM.Collect$$libshutdown$$00000010  c_w.l(libshutdown2.o)
    0x080002ea   0x00000000   Code   RO          377    .ARM.Collect$$rtentry$$00000000  c_w.l(__rtentry.o)
    0x080002ea   0x00000000   Code   RO          488    .ARM.Collect$$rtentry$$00000002  c_w.l(__rtentry2.o)
    0x080002ea   0x00000006   Code   RO          500    .ARM.Collect$$rtentry$$00000004  c_w.l(__rtentry4.o)
    0x080002f0   0x00000000   Code   RO          490    .ARM.Collect$$rtentry$$00000009  c_w.l(__rtentry2.o)
    0x080002f0   0x00000004   Code   RO          491    .ARM.Collect$$rtentry$$0000000A  c_w.l(__rtentry2.o)
    0x080002f4   0x00000000   Code   RO          493    .ARM.Collect$$rtentry$$0000000C  c_w.l(__rtentry2.o)
    0x080002f4   0x00000008   Code   RO          494    .ARM.Collect$$rtentry$$0000000D  c_w.l(__rtentry2.o)
    0x080002fc   0x00000002   Code   RO          581    .ARM.Collect$$rtexit$$00000000  c_w.l(rtexit.o)
    0x080002fe   0x00000000   Code   RO          615    .ARM.Collect$$rtexit$$00000002  c_w.l(rtexit2.o)
    0x080002fe   0x00000004   Code   RO          616    .ARM.Collect$$rtexit$$00000003  c_w.l(rtexit2.o)
    0x08000302   0x00000006   Code   RO          617    .ARM.Collect$$rtexit$$00000004  c_w.l(rtexit2.o)
    0x08000308   0x00000000   Code   RO          509    .emb_text           c_w.l(maybetermalloc1.o)
    0x08000308   0x00000044   Code   RO            4    .text               startup_stm32f429xx.o
    0x0800034c   0x00000002   Code   RO          261    .text               c_w.l(use_no_semi_2.o)
    0x0800034e   0x0000005e   Code   RO          265    .text               c_w.l(h1_alloc.o)
    0x080003ac   0x0000004e   Code   RO          266    .text               c_w.l(h1_free.o)
    0x080003fa   0x000000b8   Code   RO          267    .text               c_w.l(h1_realloc.o)
    0x080004b2   0x00000002   PAD
    0x080004b4   0x0000000c   Code   RO          298    .text               c_w.l(vprintf.o)
    0x080004c0   0x00000024   Code   RO          299    .text               c_w.l(vsprintf.o)
    0x080004e4   0x00000034   Code   RO          300    .text               c_w.l(vsnprintf.o)
    0x08000518   0x00000018   Code   RO          301    .text               c_w.l(__2printf.o)
    0x08000530   0x0000002c   Code   RO          302    .text               c_w.l(__2sprintf.o)
    0x0800055c   0x0000004e   Code   RO          306    .text               c_w.l(_printf_pad.o)
    0x080005aa   0x00000052   Code   RO          307    .text               c_w.l(_printf_str.o)
    0x080005fc   0x00000078   Code   RO          308    .text               c_w.l(_printf_dec.o)
    0x08000674   0x00000094   Code   RO          321    .text               c_w.l(_printf_hex_int_ll_ptr.o)
    0x08000708   0x00000188   Code   RO          334    .text               c_w.l(__printf_flags_ss_wp.o)
    0x08000890   0x0000003c   Code   RO          342    .text               c_w.l(__0sscanf.o)
    0x080008cc   0x00000010   Code   RO          343    .text               c_w.l(localeconv.o)
    0x080008dc   0x00000024   Code   RO          345    .text               c_w.l(strstr.o)
    0x08000900   0x00000048   Code   RO          346    .text               c_w.l(strcpy.o)
    0x08000948   0x0000003e   Code   RO          347    .text               c_w.l(strlen.o)
    0x08000986   0x0000008a   Code   RO          349    .text               c_w.l(rt_memcpy_v6.o)
    0x08000a10   0x00000064   Code   RO          350    .text               c_w.l(rt_memcpy_w.o)
    0x08000a74   0x00000044   Code   RO          351    .text               c_w.l(rt_memclr.o)
    0x08000ab8   0x0000004e   Code   RO          352    .text               c_w.l(rt_memclr_w.o)
    0x08000b06   0x00000002   PAD
    0x08000b08   0x00000080   Code   RO          353    .text               c_w.l(strcmpv7m.o)
    0x08000b88   0x00000006   Code   RO          354    .text               c_w.l(heapauxi.o)
    0x08000b8e   0x00000002   Code   RO          375    .text               c_w.l(use_no_semi.o)
    0x08000b90   0x00000010   Code   RO          378    .text               c_w.l(rt_ctype_table.o)
    0x08000ba0   0x00000008   Code   RO          381    .text               c_w.l(rt_heap_descriptor_intlibspace.o)
    0x08000ba8   0x00000004   Code   RO          382    .text               c_w.l(hguard.o)
    0x08000bac   0x0000008a   Code   RO          383    .text               c_w.l(init_alloc.o)
    0x08000c36   0x0000000e   Code   RO          385    .text               c_w.l(h1_init.o)
    0x08000c44   0x00000024   Code   RO          392    .text               c_w.l(_printf_truncate.o)
    0x08000c68   0x000000b2   Code   RO          393    .text               c_w.l(_printf_intcommon.o)
    0x08000d1a   0x00000028   Code   RO          394    .text               c_w.l(_printf_charcount.o)
    0x08000d42   0x0000041a   Code   RO          395    .text               c_w.l(_printf_fp_dec.o)
    0x0800115c   0x00000030   Code   RO          396    .text               c_w.l(_printf_char_common.o)
    0x0800118c   0x0000000a   Code   RO          397    .text               c_w.l(_sputc.o)
    0x08001196   0x00000010   Code   RO          398    .text               c_w.l(_snputc.o)
    0x080011a6   0x0000002c   Code   RO          399    .text               c_w.l(_printf_char.o)
    0x080011d2   0x00000002   PAD
    0x080011d4   0x00000024   Code   RO          400    .text               c_w.l(_printf_char_file.o)
    0x080011f8   0x000000bc   Code   RO          401    .text               c_w.l(_printf_wctomb.o)
    0x080012b4   0x0000007c   Code   RO          403    .text               c_w.l(_printf_longlong_dec.o)
    0x08001330   0x00000070   Code   RO          406    .text               c_w.l(_printf_oct_int_ll.o)
    0x080013a0   0x000004a4   Code   RO          425    .text               c_w.l(scanf_fp.o)
    0x08001844   0x0000002c   Code   RO          426    .text               c_w.l(scanf_char.o)
    0x08001870   0x00000040   Code   RO          427    .text               c_w.l(_sgetc.o)
    0x080018b0   0x00000072   Code   RO          429    .text               c_w.l(_lconv.o)
    0x08001922   0x00000002   PAD
    0x08001924   0x00000008   Code   RO          485    .text               c_w.l(libspace.o)
    0x0800192c   0x00000008   Code   RO          504    .text               c_w.l(rt_locale_intlibspace.o)
    0x08001934   0x00000008   Code   RO          507    .text               c_w.l(rt_errno_addr_intlibspace.o)
    0x0800193c   0x00000034   Code   RO          511    .text               c_w.l(h1_extend.o)
    0x08001970   0x0000008a   Code   RO          513    .text               c_w.l(lludiv10.o)
    0x080019fa   0x00000012   Code   RO          514    .text               c_w.l(isspace.o)
    0x08001a0c   0x000002fc   Code   RO          515    .text               c_w.l(_printf_fp_hex.o)
    0x08001d08   0x00000080   Code   RO          517    .text               c_w.l(_printf_fp_infnan.o)
    0x08001d88   0x0000002c   Code   RO          519    .text               c_w.l(_printf_wchar.o)
    0x08001db4   0x00000374   Code   RO          520    .text               c_w.l(_scanf.o)
    0x08002128   0x000000dc   Code   RO          521    .text               c_w.l(bigflt0.o)
    0x08002204   0x00000008   Code   RO          534    .text               c_w.l(ferror.o)
    0x0800220c   0x00000040   Code   RO          536    .text               c_w.l(_wcrtomb.o)
    0x0800224c   0x0000000e   Code   RO          543    .text               c_w.l(defsig_rtmem_outer.o)
    0x0800225a   0x0000004a   Code   RO          562    .text               c_w.l(sys_stackheap_outer.o)
    0x080022a4   0x00000016   Code   RO          565    .text               c_w.l(_rserrno.o)
    0x080022ba   0x00000002   PAD
    0x080022bc   0x00000320   Code   RO          566    .text               c_w.l(scanf_hexfp.o)
    0x080025dc   0x00000134   Code   RO          567    .text               c_w.l(scanf_infnan.o)
    0x08002710   0x00000012   Code   RO          568    .text               c_w.l(exit.o)
    0x08002722   0x0000000a   Code   RO          569    .text               c_w.l(defsig_exit.o)
    0x0800272c   0x00000050   Code   RO          570    .text               c_w.l(defsig_rtmem_inner.o)
    0x0800277c   0x00000026   Code   RO          585    .text               c_w.l(llshl.o)
    0x080027a2   0x0000001c   Code   RO          586    .text               c_w.l(_chval.o)
    0x080027be   0x00000032   Code   RO          588    .text               c_w.l(defsig_general.o)
    0x080027f0   0x0000003e   Code   RO          523    CL$$btod_d2e        c_w.l(btod.o)
    0x0800282e   0x00000046   Code   RO          525    CL$$btod_d2e_denorm_low  c_w.l(btod.o)
    0x08002874   0x00000060   Code   RO          524    CL$$btod_d2e_norm_op1  c_w.l(btod.o)
    0x080028d4   0x00000338   Code   RO          533    CL$$btod_div_common  c_w.l(btod.o)
    0x08002c0c   0x00000054   Code   RO          531    CL$$btod_e2d        c_w.l(btod.o)
    0x08002c60   0x000000c6   Code   RO          530    CL$$btod_e2e        c_w.l(btod.o)
    0x08002d26   0x00000028   Code   RO          527    CL$$btod_ediv       c_w.l(btod.o)
    0x08002d4e   0x00000028   Code   RO          529    CL$$btod_edivd      c_w.l(btod.o)
    0x08002d76   0x00000028   Code   RO          526    CL$$btod_emul       c_w.l(btod.o)
    0x08002d9e   0x00000028   Code   RO          528    CL$$btod_emuld      c_w.l(btod.o)
    0x08002dc6   0x00000244   Code   RO          532    CL$$btod_mult_common  c_w.l(btod.o)
    0x0800300a   0x0000008a   Code   RO           47    i.AtoI              wayz.o
    0x08003094   0x00000040   Code   RO           24    i.GPIO_AF_Set       sys.o
    0x080030d4   0x0000010c   Code   RO           25    i.GPIO_Set          sys.o
    0x080031e0   0x00000026   Code   RO           48    i.HAL_Snprintf      wayz.o
    0x08003206   0x00000002   PAD
    0x08003208   0x00000048   Code   RO          175    i.LCD_Clear         lcd.o
    0x08003250   0x00000180   Code   RO          179    i.LCD_Display_Dir   lcd.o
    0x080033d0   0x000000b0   Code   RO          180    i.LCD_DrawLine      lcd.o
    0x08003480   0x0000003c   Code   RO          181    i.LCD_DrawPoint     lcd.o
    0x080034bc   0x00000124   Code   RO          184    i.LCD_Fast_DrawPoint  lcd.o
    0x080035e0   0x00002590   Code   RO          186    i.LCD_Init          lcd.o
    0x08005b70   0x00000016   Code   RO          187    i.LCD_Pow           lcd.o
    0x08005b86   0x00000002   PAD
    0x08005b88   0x00000014   Code   RO          188    i.LCD_RD_DATA       lcd.o
    0x08005b9c   0x00000060   Code   RO          191    i.LCD_SSD_BackLightSet  lcd.o
    0x08005bfc   0x00000274   Code   RO          192    i.LCD_Scan_Dir      lcd.o
    0x08005e70   0x00000138   Code   RO          193    i.LCD_SetCursor     lcd.o
    0x08005fa8   0x0000013c   Code   RO          195    i.LCD_ShowChar      lcd.o
    0x080060e4   0x00000094   Code   RO          196    i.LCD_ShowNum       lcd.o
    0x08006178   0x00000066   Code   RO          197    i.LCD_ShowString    lcd.o
    0x080061de   0x00000002   PAD
    0x080061e0   0x00000018   Code   RO          199    i.LCD_WR_DATA       lcd.o
    0x080061f8   0x00000018   Code   RO          200    i.LCD_WR_REG        lcd.o
    0x08006210   0x00000014   Code   RO          202    i.LCD_WriteRAM_Prepare  lcd.o
    0x08006224   0x00000010   Code   RO          203    i.LCD_WriteReg      lcd.o
    0x08006234   0x00000024   Code   RO          211    i.LTDC_Clear        ltdc.o
    0x08006258   0x00000098   Code   RO          212    i.LTDC_Clk_Set      ltdc.o
    0x080062f0   0x0000002c   Code   RO          214    i.LTDC_Display_Dir  ltdc.o
    0x0800631c   0x00000060   Code   RO          215    i.LTDC_Draw_Point   ltdc.o
    0x0800637c   0x00000148   Code   RO          216    i.LTDC_Fill         ltdc.o
    0x080064c4   0x0000038c   Code   RO          217    i.LTDC_Init         ltdc.o
    0x08006850   0x00000088   Code   RO          218    i.LTDC_Layer_Parameter_Config  ltdc.o
    0x080068d8   0x00000060   Code   RO          219    i.LTDC_Layer_Switch  ltdc.o
    0x08006938   0x00000138   Code   RO          220    i.LTDC_Layer_Window_Config  ltdc.o
    0x08006a70   0x000000a0   Code   RO          221    i.LTDC_PanelID_Read  ltdc.o
    0x08006b10   0x0000000c   Code   RO          223    i.LTDC_Select_Layer  ltdc.o
    0x08006b1c   0x00000028   Code   RO          224    i.LTDC_Switch       ltdc.o
    0x08006b44   0x00000078   Code   RO           28    i.MY_NVIC_Init      sys.o
    0x08006bbc   0x00000028   Code   RO           29    i.MY_NVIC_PriorityGroupConfig  sys.o
    0x08006be4   0x00000010   Code   RO           30    i.MY_NVIC_SetVectorTable  sys.o
    0x08006bf4   0x000002cc   Code   RO          257    i.SDRAM_Init        sdram.o
    0x08006ec0   0x00000048   Code   RO          258    i.SDRAM_Send_Cmd    sdram.o
    0x08006f08   0x00000068   Code   RO           31    i.Stm32_Clock_Init  sys.o
    0x08006f70   0x0000010c   Code   RO           32    i.Sys_Clock_Set     sys.o
    0x0800707c   0x00000030   Code   RO          243    i.TIM3_IRQHandler   timer.o
    0x080070ac   0x000000e8   Code   RO          247    i.TIM5_IRQHandler   timer.o
    0x08007194   0x0000003c   Code   RO          248    i.TIM7_IRQHandler   timer.o
    0x080071d0   0x00000058   Code   RO          249    i.TIM7_Int_Init     timer.o
    0x08007228   0x00000088   Code   RO           12    i.USART1_IRQHandler  usart.o
    0x080072b0   0x00000070   Code   RO          235    i.USART3_IRQHandler  usart3.o
    0x08007320   0x00000030   Code   RO          556    i.__ARM_fpclassify  m_wm.l(fpclassify.o)
    0x08007350   0x000000d0   Code   RO          606    i.__hardfp_ldexp    m_wm.l(ldexp.o)
    0x08007420   0x00000020   Code   RO          627    i.__mathlib_dbl_overflow  m_wm.l(dunder.o)
    0x08007440   0x00000020   Code   RO          629    i.__mathlib_dbl_underflow  m_wm.l(dunder.o)
    0x08007460   0x000000b8   Code   RO          558    i.__mathlib_narrow  m_wm.l(narrow.o)
    0x08007518   0x00000014   Code   RO          608    i.__support_ldexp   m_wm.l(ldexp.o)
    0x0800752c   0x0000000e   Code   RO          330    i._is_digit         c_w.l(__printf_wp.o)
    0x0800753a   0x00000004   Code   RO           13    i._sys_exit         usart.o
    0x0800753e   0x00000004   Code   RO           14    i._ttywrch          usart.o
    0x08007542   0x00000002   PAD
    0x08007544   0x000000d8   Code   RO           49    i.asset2Json        wayz.o
    0x0800761c   0x000000c4   Code   RO           50    i.atk_8266_bridge   wayz.o
    0x080076e0   0x00000074   Code   RO           51    i.atk_8266_check_cmd  wayz.o
    0x08007754   0x00000070   Code   RO           52    i.atk_8266_quit_trans  wayz.o
    0x080077c4   0x00000144   Code   RO           53    i.atk_8266_send_cmd  wayz.o
    0x08007908   0x0000002c   Code   RO           84    i.cJSON_AddItemToArray  cjson.o
    0x08007934   0x00000030   Code   RO           85    i.cJSON_AddItemToObject  cjson.o
    0x08007964   0x0000003c   Code   RO           86    i.cJSON_AddItemToObjectCS  cjson.o
    0x080079a0   0x00000018   Code   RO           88    i.cJSON_CreateArray  cjson.o
    0x080079b8   0x00000020   Code   RO           89    i.cJSON_CreateBool  cjson.o
    0x080079d8   0x0000007c   Code   RO           95    i.cJSON_CreateNumber  cjson.o
    0x08007a54   0x00000018   Code   RO           96    i.cJSON_CreateObject  cjson.o
    0x08007a6c   0x00000034   Code   RO           98    i.cJSON_CreateString  cjson.o
    0x08007aa0   0x00000058   Code   RO          101    i.cJSON_Delete      cjson.o
    0x08007af8   0x0000001c   Code   RO          129    i.cJSON_New_Item    cjson.o
    0x08007b14   0x00000014   Code   RO          132    i.cJSON_Print       cjson.o
    0x08007b28   0x00000014   Code   RO          135    i.cJSON_PrintUnformatted  cjson.o
    0x08007b3c   0x00000038   Code   RO          144    i.cJSON_strdup      cjson.o
    0x08007b74   0x000001e0   Code   RO           55    i.connectWifi       wayz.o
    0x08007d54   0x00000038   Code   RO           39    i.delay_init        delay.o
    0x08007d8c   0x00000038   Code   RO           40    i.delay_ms          delay.o
    0x08007dc4   0x0000003c   Code   RO           41    i.delay_us          delay.o
    0x08007e00   0x0000003c   Code   RO           42    i.delay_xms         delay.o
    0x08007e3c   0x000000ac   Code   RO          147    i.ensure            cjson.o
    0x08007ee8   0x0000001c   Code   RO           15    i.fputc             usart.o
    0x08007f04   0x00000004   PAD
    0x08007f08   0x0000008c   Code   RO          580    i.frexp             m_wm.l(frexp.o)
    0x08007f94   0x00000008   Code   RO           56    i.getDEVID          wayz.o
    0x08007f9c   0x00000278   Code   RO           57    i.getInfoFromRaw    wayz.o
    0x08008214   0x00000080   Code   RO           58    i.getMAC            wayz.o
    0x08008294   0x00000008   Code   RO           59    i.getMODEL          wayz.o
    0x0800829c   0x00000008   Code   RO           60    i.getSOFTV          wayz.o
    0x080082a4   0x00000008   Code   RO           61    i.getUUID           wayz.o
    0x080082ac   0x00000018   Code   RO           62    i.getWifiCount      wayz.o
    0x080082c4   0x0000000e   Code   RO          149    i.get_decimal_point  cjson.o
    0x080082d2   0x00000002   PAD
    0x080082d4   0x000001ec   Code   RO           63    i.gnss2Json         wayz.o
    0x080084c0   0x00000078   Code   RO           64    i.initESP8266       wayz.o
    0x08008538   0x000000a0   Code   RO           65    i.location2Json     wayz.o
    0x080085d8   0x00000030   Code   RO           78    i.logd              zlog.o
    0x08008608   0x00000030   Code   RO           79    i.loge              zlog.o
    0x08008638   0x00000030   Code   RO           80    i.logi              zlog.o
    0x08008668   0x00000014   Code   RO          151    i.mMemset           cjson.o
    0x0800867c   0x00000164   Code   RO            8    i.main              main.o
    0x080087e0   0x00000048   Code   RO           66    i.os2Json           wayz.o
    0x08008828   0x000000a6   Code   RO          158    i.print             cjson.o
    0x080088ce   0x00000002   PAD
    0x080088d0   0x00000150   Code   RO           69    i.printOutInfo      wayz.o
    0x08008a20   0x000000b2   Code   RO          159    i.print_array       cjson.o
    0x08008ad2   0x00000002   PAD
    0x08008ad4   0x0000010c   Code   RO          160    i.print_number      cjson.o
    0x08008be0   0x00000174   Code   RO          161    i.print_object      cjson.o
    0x08008d54   0x00000010   Code   RO          162    i.print_string      cjson.o
    0x08008d64   0x00000174   Code   RO          163    i.print_string_ptr  cjson.o
    0x08008ed8   0x00000110   Code   RO          164    i.print_value       cjson.o
    0x08008fe8   0x00000030   Code   RO           70    i.strCount          wayz.o
    0x08009018   0x00000006   Code   RO          166    i.suffix_object     cjson.o
    0x0800901e   0x00000002   PAD
    0x08009020   0x0000011c   Code   RO           71    i.track2CJson       wayz.o
    0x0800913c   0x00000060   Code   RO           72    i.track2JsonString  wayz.o
    0x0800919c   0x00000050   Code   RO          236    i.u3_printf         usart3.o
    0x080091ec   0x00000100   Code   RO           16    i.uart_init         usart.o
    0x080092ec   0x00000024   Code   RO          167    i.update_offset     cjson.o
    0x08009310   0x00000120   Code   RO          237    i.usart3_init       usart3.o
    0x08009430   0x00000214   Code   RO           73    i.wifi2Json         wayz.o
    0x08009644   0x0000065c   Code   RO           74    i.wifiscan          wayz.o
    0x08009ca0   0x0000002c   Code   RO          538    locale$$code        c_w.l(lc_ctype_c.o)
    0x08009ccc   0x0000002c   Code   RO          540    locale$$code        c_w.l(lc_monetary_c.o)
    0x08009cf8   0x0000002c   Code   RO          542    locale$$code        c_w.l(lc_numeric_c.o)
    0x08009d24   0x00000062   Code   RO          577    x$fpl$d2f           fz_wm.l(d2f.o)
    0x08009d86   0x00000002   PAD
    0x08009d88   0x00000010   Code   RO          644    x$fpl$dcheck1       fz_wm.l(dcheck1.o)
    0x08009d98   0x00000018   Code   RO          476    x$fpl$dcmpinf       fz_wm.l(dcmpi.o)
    0x08009db0   0x00000078   Code   RO          356    x$fpl$deqf          fz_wm.l(deqf.o)
    0x08009e28   0x0000005e   Code   RO          357    x$fpl$dfix          fz_wm.l(dfix.o)
    0x08009e86   0x00000002   PAD
    0x08009e88   0x0000005a   Code   RO          359    x$fpl$dfixu         fz_wm.l(dfixu.o)
    0x08009ee2   0x0000002e   Code   RO          362    x$fpl$dflt          fz_wm.l(dflt_clz.o)
    0x08009f10   0x000000a2   Code   RO          364    x$fpl$dfltll        fz_wm.l(dfltll_clz.o)
    0x08009fb2   0x00000026   Code   RO          361    x$fpl$dfltu         fz_wm.l(dflt_clz.o)
    0x08009fd8   0x00000078   Code   RO          366    x$fpl$dleqf         fz_wm.l(dleqf.o)
    0x0800a050   0x00000154   Code   RO          367    x$fpl$dmul          fz_wm.l(dmul.o)
    0x0800a1a4   0x0000009c   Code   RO          477    x$fpl$dnaninf       fz_wm.l(dnaninf.o)
    0x0800a240   0x0000000c   Code   RO          478    x$fpl$dretinf       fz_wm.l(dretinf.o)
    0x0800a24c   0x0000006c   Code   RO          368    x$fpl$drleqf        fz_wm.l(drleqf.o)
    0x0800a2b8   0x00000056   Code   RO          369    x$fpl$f2d           fz_wm.l(f2d.o)
    0x0800a30e   0x0000008c   Code   RO          479    x$fpl$fnaninf       fz_wm.l(fnaninf.o)
    0x0800a39a   0x0000000a   Code   RO          551    x$fpl$fpinit        fz_wm.l(fpinit.o)
    0x0800a3a4   0x0000000a   Code   RO          605    x$fpl$fretinf       fz_wm.l(fretinf.o)
    0x0800a3ae   0x00000004   Code   RO          370    x$fpl$printf1       fz_wm.l(printf1.o)
    0x0800a3b2   0x00000004   Code   RO          480    x$fpl$printf2       fz_wm.l(printf2.o)
    0x0800a3b6   0x00000064   Code   RO          647    x$fpl$retnan        fz_wm.l(retnan.o)
    0x0800a41a   0x0000005c   Code   RO          622    x$fpl$scalbn        fz_wm.l(scalbn.o)
    0x0800a476   0x00000004   Code   RO          371    x$fpl$scanf1        fz_wm.l(scanf1.o)
    0x0800a47a   0x00000008   Code   RO          553    x$fpl$scanf2        fz_wm.l(scanf2.o)
    0x0800a482   0x00000030   Code   RO          648    x$fpl$trapveneer    fz_wm.l(trapv.o)
    0x0800a4b2   0x00000000   Code   RO          483    x$fpl$usenofp       fz_wm.l(usenofp.o)
    0x0800a4b2   0x00004740   Data   RO          206    .constdata          lcd.o
    0x0800ebf2   0x00000028   Data   RO          322    .constdata          c_w.l(_printf_hex_int_ll_ptr.o)
    0x0800ec1a   0x00000011   Data   RO          335    .constdata          c_w.l(__printf_flags_ss_wp.o)
    0x0800ec2b   0x00000001   PAD
    0x0800ec2c   0x00000008   Data   RO          402    .constdata          c_w.l(_printf_wctomb.o)
    0x0800ec34   0x00000026   Data   RO          516    .constdata          c_w.l(_printf_fp_hex.o)
    0x0800ec5a   0x00000002   PAD
    0x0800ec5c   0x00000094   Data   RO          522    .constdata          c_w.l(bigflt0.o)
    0x0800ecf0   0x000000db   Data   RO           76    .conststring        wayz.o
    0x0800edcb   0x00000001   PAD
    0x0800edcc   0x00000020   Data   RO          649    Region$$Table       anon$$obj.o
    0x0800edec   0x00000008   Data   RO          548    c$$dinf             fz_wm.l(fpconst.o)
    0x0800edf4   0x00000110   Data   RO          537    locale$$data        c_w.l(lc_ctype_c.o)
    0x0800ef04   0x00000038   Data   RO          539    locale$$data        c_w.l(lc_monetary_c.o)
    0x0800ef3c   0x0000001c   Data   RO          541    locale$$data        c_w.l(lc_numeric_c.o)


    Execution Region RW_IRAM1 (Base: 0x20000000, Size: 0x0000c798, Max: 0x00030000, ABSOLUTE)

    Base Addr    Size         Type   Attr      Idx    E Section Name        Object

    0x20000000   0x00000006   Data   RW           18    .data               usart.o
    0x20000006   0x00000004   Data   RW           43    .data               delay.o
    0x2000000a   0x00000002   PAD
    0x2000000c   0x00000042   Data   RW           77    .data               wayz.o
    0x2000004e   0x00000002   PAD
    0x20000050   0x00000014   Data   RW          170    .data               cjson.o
    0x20000064   0x00000008   Data   RW          207    .data               lcd.o
    0x2000006c   0x00000008   Data   RW          227    .data               ltdc.o
    0x20000074   0x00000002   Data   RW          239    .data               usart3.o
    0x20000076   0x00000002   PAD
    0x20000078   0x00000008   Data   RW          251    .data               timer.o
    0x20000080   0x00001388   Zero   RW           17    .bss                usart.o
    0x20001408   0x00001b62   Zero   RW           75    .bss                wayz.o
    0x20002f6a   0x0000000e   Zero   RW          205    .bss                lcd.o
    0x20002f78   0x00000020   Zero   RW          226    .bss                ltdc.o
    0x20002f98   0x00001770   Zero   RW          238    .bss                usart3.o
    0x20004708   0x00000030   Zero   RW          344    .bss                c_w.l(localeconv.o)
    0x20004738   0x00000060   Zero   RW          486    .bss                c_w.l(libspace.o)
    0x20004798   0x00000000   Zero   RW            2    HEAP                startup_stm32f429xx.o
    0x20004798   0x00008000   Zero   RW            1    STACK               startup_stm32f429xx.o



  Load Region LR$$.ARM.__AT_0xC0000000 (Base: 0xc0000000, Size: 0x00000000, Max: 0x001f4000, ABSOLUTE)

    Execution Region ER$$.ARM.__AT_0xC0000000 (Base: 0xc0000000, Size: 0x001f4000, Max: 0x001f4000, ABSOLUTE, UNINIT)

    Base Addr    Size         Type   Attr      Idx    E Section Name        Object

    0xc0000000   0x001f4000   Zero   RW          225    .ARM.__AT_0xC0000000  ltdc.o


==============================================================================

Image component sizes


      Code (inc. data)   RO Data    RW Data    ZI Data      Debug   Object Name

      2512        138          0         20          0          0   cjson.o
       232         18          0          4          0          0   delay.o
     12328        206      18240          8         14          0   lcd.o
      2320        140          0          8    2048032          0   ltdc.o
       356        146          0          0          0          0   main.o
       788         34          0          0          0          0   sdram.o
        68         24        428          0      32768          0   startup_stm32f429xx.o
       880         50          0          0          0          0   sys.o
       428         36          0          8          0          0   timer.o
       428         36          0          6       5000          0   usart.o
       480         50          0          2       6000          0   usart3.o
      6204       2038        219         66       7010          0   wayz.o
       144         30          0          0          0          0   zlog.o

    ----------------------------------------------------------------------
     27188       2950      18920        128    2098824          0   Object Totals
         0          0         32          0          0          0   (incl. Generated)
        20          4          1          6          0          0   (incl. Padding)

    ----------------------------------------------------------------------

      Code (inc. data)   RO Data    RW Data    ZI Data      Debug   Library Member Name

        60          8          0          0          0          0   __0sscanf.o
        24          4          0          0          0          0   __2printf.o
        44          6          0          0          0          0   __2sprintf.o
         8          0          0          0          0          0   __main.o
       392          4         17          0          0          0   __printf_flags_ss_wp.o
        14          0          0          0          0          0   __printf_wp.o
         0          0          0          0          0          0   __rtentry.o
        12          0          0          0          0          0   __rtentry2.o
         6          0          0          0          0          0   __rtentry4.o
        52          8          0          0          0          0   __scatter.o
        26          0          0          0          0          0   __scatter_copy.o
        28          0          0          0          0          0   __scatter_zi.o
        28          0          0          0          0          0   _chval.o
       114          0          0          0          0          0   _lconv.o
         6          0          0          0          0          0   _printf_a.o
         6          0          0          0          0          0   _printf_c.o
        44          0          0          0          0          0   _printf_char.o
        48          6          0          0          0          0   _printf_char_common.o
        36          4          0          0          0          0   _printf_char_file.o
        40          0          0          0          0          0   _printf_charcount.o
         6          0          0          0          0          0   _printf_d.o
       120         16          0          0          0          0   _printf_dec.o
         6          0          0          0          0          0   _printf_e.o
         6          0          0          0          0          0   _printf_f.o
      1050          0          0          0          0          0   _printf_fp_dec.o
       764          8         38          0          0          0   _printf_fp_hex.o
       128         16          0          0          0          0   _printf_fp_infnan.o
         6          0          0          0          0          0   _printf_g.o
       148          4         40          0          0          0   _printf_hex_int_ll_ptr.o
         6          0          0          0          0          0   _printf_i.o
       178          0          0          0          0          0   _printf_intcommon.o
        10          0          0          0          0          0   _printf_l.o
         6          0          0          0          0          0   _printf_lc.o
        10          0          0          0          0          0   _printf_ll.o
         6          0          0          0          0          0   _printf_lld.o
         6          0          0          0          0          0   _printf_lli.o
         6          0          0          0          0          0   _printf_llo.o
         6          0          0          0          0          0   _printf_llu.o
         6          0          0          0          0          0   _printf_llx.o
       124         16          0          0          0          0   _printf_longlong_dec.o
         6          0          0          0          0          0   _printf_ls.o
         6          0          0          0          0          0   _printf_n.o
         6          0          0          0          0          0   _printf_o.o
       112          8          0          0          0          0   _printf_oct_int_ll.o
         6          0          0          0          0          0   _printf_p.o
        78          0          0          0          0          0   _printf_pad.o
         0          0          0          0          0          0   _printf_percent.o
         4          0          0          0          0          0   _printf_percent_end.o
         6          0          0          0          0          0   _printf_s.o
        82          0          0          0          0          0   _printf_str.o
        36          0          0          0          0          0   _printf_truncate.o
         6          0          0          0          0          0   _printf_u.o
        44          0          0          0          0          0   _printf_wchar.o
       188          6          8          0          0          0   _printf_wctomb.o
         6          0          0          0          0          0   _printf_x.o
        22          0          0          0          0          0   _rserrno.o
       884          6          0          0          0          0   _scanf.o
        64          0          0          0          0          0   _sgetc.o
        16          0          0          0          0          0   _snputc.o
        10          0          0          0          0          0   _sputc.o
        64          0          0          0          0          0   _wcrtomb.o
       220          4        148          0          0          0   bigflt0.o
      2074        132          0          0          0          0   btod.o
        10          0          0          0          0          0   defsig_exit.o
        50          0          0          0          0          0   defsig_general.o
        80         58          0          0          0          0   defsig_rtmem_inner.o
        14          0          0          0          0          0   defsig_rtmem_outer.o
        18          0          0          0          0          0   exit.o
         8          0          0          0          0          0   ferror.o
        94          0          0          0          0          0   h1_alloc.o
        52          0          0          0          0          0   h1_extend.o
        78          0          0          0          0          0   h1_free.o
        14          0          0          0          0          0   h1_init.o
       184          0          0          0          0          0   h1_realloc.o
         6          0          0          0          0          0   heapauxi.o
         4          0          0          0          0          0   hguard.o
       138          0          0          0          0          0   init_alloc.o
        18          0          0          0          0          0   isspace.o
        44         10        272          0          0          0   lc_ctype_c.o
        44         10         56          0          0          0   lc_monetary_c.o
        44         10         28          0          0          0   lc_numeric_c.o
         2          0          0          0          0          0   libinit.o
        52          0          0          0          0          0   libinit2.o
         2          0          0          0          0          0   libshutdown.o
         2          0          0          0          0          0   libshutdown2.o
         8          4          0          0         96          0   libspace.o
        38          0          0          0          0          0   llshl.o
       138          0          0          0          0          0   lludiv10.o
        16          4          0          0         48          0   localeconv.o
         0          0          0          0          0          0   maybetermalloc1.o
        16          4          0          0          0          0   rt_ctype_table.o
         8          4          0          0          0          0   rt_errno_addr_intlibspace.o
         8          4          0          0          0          0   rt_heap_descriptor_intlibspace.o
         8          4          0          0          0          0   rt_locale_intlibspace.o
        68          0          0          0          0          0   rt_memclr.o
        78          0          0          0          0          0   rt_memclr_w.o
       138          0          0          0          0          0   rt_memcpy_v6.o
       100          0          0          0          0          0   rt_memcpy_w.o
         2          0          0          0          0          0   rtexit.o
        10          0          0          0          0          0   rtexit2.o
        44          8          0          0          0          0   scanf_char.o
      1188         12          0          0          0          0   scanf_fp.o
       800         14          0          0          0          0   scanf_hexfp.o
       308         16          0          0          0          0   scanf_infnan.o
       128          0          0          0          0          0   strcmpv7m.o
        72          0          0          0          0          0   strcpy.o
        62          0          0          0          0          0   strlen.o
        36          0          0          0          0          0   strstr.o
        74          0          0          0          0          0   sys_stackheap_outer.o
         2          0          0          0          0          0   use_no_semi.o
         2          0          0          0          0          0   use_no_semi_2.o
        12          4          0          0          0          0   vprintf.o
        52          4          0          0          0          0   vsnprintf.o
        36          4          0          0          0          0   vsprintf.o
        98          4          0          0          0          0   d2f.o
        16          4          0          0          0          0   dcheck1.o
        24          0          0          0          0          0   dcmpi.o
       120          4          0          0          0          0   deqf.o
        94          4          0          0          0          0   dfix.o
        90          4          0          0          0          0   dfixu.o
        84          0          0          0          0          0   dflt_clz.o
       162          0          0          0          0          0   dfltll_clz.o
       120          4          0          0          0          0   dleqf.o
       340         12          0          0          0          0   dmul.o
       156          4          0          0          0          0   dnaninf.o
        12          0          0          0          0          0   dretinf.o
       108          0          0          0          0          0   drleqf.o
        86          4          0          0          0          0   f2d.o
       140          4          0          0          0          0   fnaninf.o
         0          0          8          0          0          0   fpconst.o
        10          0          0          0          0          0   fpinit.o
        10          0          0          0          0          0   fretinf.o
         4          0          0          0          0          0   printf1.o
         4          0          0          0          0          0   printf2.o
       100          0          0          0          0          0   retnan.o
        92          0          0          0          0          0   scalbn.o
         4          0          0          0          0          0   scanf1.o
         8          0          0          0          0          0   scanf2.o
        48          0          0          0          0          0   trapv.o
         0          0          0          0          0          0   usenofp.o
        64         16          0          0          0          0   dunder.o
        48          0          0          0          0          0   fpclassify.o
       140         22          0          0          0          0   frexp.o
       228          8          0          0          0          0   ldexp.o
       184         18          0          0          0          0   narrow.o

    ----------------------------------------------------------------------
     14546        542        618          0        144          0   Library Totals
        16          0          3          0          0          0   (incl. Padding)

    ----------------------------------------------------------------------

      Code (inc. data)   RO Data    RW Data    ZI Data      Debug   Library Name

     11936        430        607          0        144          0   c_w.l
      1930         48          8          0          0          0   fz_wm.l
       664         64          0          0          0          0   m_wm.l

    ----------------------------------------------------------------------
     14546        542        618          0        144          0   Library Totals

    ----------------------------------------------------------------------

==============================================================================


      Code (inc. data)   RO Data    RW Data    ZI Data      Debug   

     41734       3492      19538        128    2098968          0   Grand Totals
     41734       3492      19538        128    2098968          0   ELF Image Totals
     41734       3492      19538        128          0          0   ROM Totals

==============================================================================

    Total RO  Size (Code + RO Data)                61272 (  59.84kB)
    Total RW  Size (RW Data + ZI Data)           2099096 (2049.90kB)
    Total ROM Size (Code + RO Data + RW Data)      61400 (  59.96kB)

==============================================================================

